ARM GAS  C:\Users\JONSHA~1\AppData\Local\Temp\ccGUQV9X.s 			page 1


   1              		.cpu cortex-m0
   2              		.fpu softvfp
   3              		.eabi_attribute 20, 1
   4              		.eabi_attribute 21, 1
   5              		.eabi_attribute 23, 3
   6              		.eabi_attribute 24, 1
   7              		.eabi_attribute 25, 1
   8              		.eabi_attribute 26, 1
   9              		.eabi_attribute 30, 1
  10              		.eabi_attribute 34, 0
  11              		.eabi_attribute 18, 4
  12              		.code	16
  13              		.file	"StripLights_1.c"
  14              		.text
  15              	.Ltext0:
  16              		.cfi_sections	.debug_frame
  17              		.section	.text.StripLights_1_FISR,"ax",%progbits
  18              		.align	2
  19              		.global	StripLights_1_FISR
  20              		.code	16
  21              		.thumb_func
  22              		.type	StripLights_1_FISR, %function
  23              	StripLights_1_FISR:
  24              	.LFB39:
  25              		.file 1 ".\\Generated_Source\\PSoC4\\StripLights_1.c"
   1:.\Generated_Source\PSoC4/StripLights_1.c **** /* =========================================================
   2:.\Generated_Source\PSoC4/StripLights_1.c ****  *
   3:.\Generated_Source\PSoC4/StripLights_1.c ****  * Strip Light Controller
   4:.\Generated_Source\PSoC4/StripLights_1.c ****  * By Mark Hastings
   5:.\Generated_Source\PSoC4/StripLights_1.c ****  *
   6:.\Generated_Source\PSoC4/StripLights_1.c ****  * 05/27/2013  v1.0  Mark Hastings   Initial working version
   7:.\Generated_Source\PSoC4/StripLights_1.c ****  * 09/04/2013  v1.3  Mark Hastings   Add more features and color lookup.
   8:.\Generated_Source\PSoC4/StripLights_1.c ****  * 12/02/2013  v1.6  Mark Hastings   Added a couple more functions.
   9:.\Generated_Source\PSoC4/StripLights_1.c ****  *
  10:.\Generated_Source\PSoC4/StripLights_1.c ****  * This file contains the functions required to control each
  11:.\Generated_Source\PSoC4/StripLights_1.c ****  * lighting control channel.
  12:.\Generated_Source\PSoC4/StripLights_1.c ****  *
  13:.\Generated_Source\PSoC4/StripLights_1.c ****  * =========================================================
  14:.\Generated_Source\PSoC4/StripLights_1.c **** */
  15:.\Generated_Source\PSoC4/StripLights_1.c **** 
  16:.\Generated_Source\PSoC4/StripLights_1.c **** #include <project.h>
  17:.\Generated_Source\PSoC4/StripLights_1.c **** #include "cytypes.h"
  18:.\Generated_Source\PSoC4/StripLights_1.c **** #include "stdlib.h"
  19:.\Generated_Source\PSoC4/StripLights_1.c **** #include "cyfitter.h"
  20:.\Generated_Source\PSoC4/StripLights_1.c **** #include "StripLights_1.h"
  21:.\Generated_Source\PSoC4/StripLights_1.c **** #include "StripLights_1_fonts.h"
  22:.\Generated_Source\PSoC4/StripLights_1.c **** 
  23:.\Generated_Source\PSoC4/StripLights_1.c **** uint8  StripLights_1_initvar = 0;
  24:.\Generated_Source\PSoC4/StripLights_1.c **** 
  25:.\Generated_Source\PSoC4/StripLights_1.c **** #if(StripLights_1_MEMORY_TYPE == StripLights_1_MEMORY_RGB)
  26:.\Generated_Source\PSoC4/StripLights_1.c **** uint32  StripLights_1_ledArray[StripLights_1_ARRAY_ROWS][StripLights_1_ARRAY_COLS];
  27:.\Generated_Source\PSoC4/StripLights_1.c **** #else
  28:.\Generated_Source\PSoC4/StripLights_1.c **** uint8   StripLights_1_ledArray[StripLights_1_ARRAY_ROWS][StripLights_1_ARRAY_COLS];
  29:.\Generated_Source\PSoC4/StripLights_1.c **** #endif
  30:.\Generated_Source\PSoC4/StripLights_1.c **** 
  31:.\Generated_Source\PSoC4/StripLights_1.c **** uint32  StripLights_1_ledIndex = 0;  
  32:.\Generated_Source\PSoC4/StripLights_1.c **** uint32  StripLights_1_row = 0;
ARM GAS  C:\Users\JONSHA~1\AppData\Local\Temp\ccGUQV9X.s 			page 2


  33:.\Generated_Source\PSoC4/StripLights_1.c **** uint32  StripLights_1_refreshComplete;
  34:.\Generated_Source\PSoC4/StripLights_1.c **** 
  35:.\Generated_Source\PSoC4/StripLights_1.c **** uint32  StripLights_1_DimMask;
  36:.\Generated_Source\PSoC4/StripLights_1.c **** uint32  StripLights_1_DimShift;
  37:.\Generated_Source\PSoC4/StripLights_1.c **** 
  38:.\Generated_Source\PSoC4/StripLights_1.c **** 
  39:.\Generated_Source\PSoC4/StripLights_1.c **** #if(StripLights_1_CHIP == StripLights_1_CHIP_WS2812)
  40:.\Generated_Source\PSoC4/StripLights_1.c **** const uint32 StripLights_1_CLUT[ ] = {
  41:.\Generated_Source\PSoC4/StripLights_1.c **** //xxBBRRGG (WS2812)
  42:.\Generated_Source\PSoC4/StripLights_1.c **** //     (24)   [ Index = 0 ]
  43:.\Generated_Source\PSoC4/StripLights_1.c **** 0x0000FFFF,  // 0 Yellow
  44:.\Generated_Source\PSoC4/StripLights_1.c **** 0x0000CCFF,
  45:.\Generated_Source\PSoC4/StripLights_1.c **** 0x000099FF,
  46:.\Generated_Source\PSoC4/StripLights_1.c **** 0x000033FF,
  47:.\Generated_Source\PSoC4/StripLights_1.c **** 0x000000FF,  // 5  Green
  48:.\Generated_Source\PSoC4/StripLights_1.c **** 0x006600B3,
  49:.\Generated_Source\PSoC4/StripLights_1.c **** 0x00990099, 
  50:.\Generated_Source\PSoC4/StripLights_1.c **** 0x00B30066, 
  51:.\Generated_Source\PSoC4/StripLights_1.c **** 0x00CC0033,  // 9 Blue
  52:.\Generated_Source\PSoC4/StripLights_1.c **** 0x00B31919, 
  53:.\Generated_Source\PSoC4/StripLights_1.c **** 0x00993300, 
  54:.\Generated_Source\PSoC4/StripLights_1.c **** 0x00994000, 
  55:.\Generated_Source\PSoC4/StripLights_1.c **** 0x00996600, 
  56:.\Generated_Source\PSoC4/StripLights_1.c **** 0x00999900, 
  57:.\Generated_Source\PSoC4/StripLights_1.c **** 0x0099CC00, 
  58:.\Generated_Source\PSoC4/StripLights_1.c **** 0x0066E600, 
  59:.\Generated_Source\PSoC4/StripLights_1.c **** 0x0000FF00, 
  60:.\Generated_Source\PSoC4/StripLights_1.c **** 0x0000FF33, 
  61:.\Generated_Source\PSoC4/StripLights_1.c **** 0x0000FF66, 
  62:.\Generated_Source\PSoC4/StripLights_1.c **** 0x0000FF80, 
  63:.\Generated_Source\PSoC4/StripLights_1.c **** 0x0000FF99,  // 20 Orange
  64:.\Generated_Source\PSoC4/StripLights_1.c **** 0x0000FFB2, 
  65:.\Generated_Source\PSoC4/StripLights_1.c **** 0x0000FFCC, 
  66:.\Generated_Source\PSoC4/StripLights_1.c **** 0x0000FFE5,
  67:.\Generated_Source\PSoC4/StripLights_1.c **** // #24
  68:.\Generated_Source\PSoC4/StripLights_1.c **** 
  69:.\Generated_Source\PSoC4/StripLights_1.c **** //xxBBRRGG  (64)  [ Index = 24 ]
  70:.\Generated_Source\PSoC4/StripLights_1.c **** 0x00000000, 0x00550000, 0x00AA0000, 0x00FF0000,  // 0, Black,  LtBlue, MBlue, Blue
  71:.\Generated_Source\PSoC4/StripLights_1.c **** 0x00000055, 0x00550055, 0x00AA0055, 0x00FF0055,  // 4, LtGreen
  72:.\Generated_Source\PSoC4/StripLights_1.c **** 0x000000AA, 0x005500AA, 0x00AA00AA, 0x00FF00AA,  // 8, MGreen
  73:.\Generated_Source\PSoC4/StripLights_1.c **** 0x000000FF, 0x005500FF, 0x00AA00FF, 0x00FF00FF,  // 12 Green
  74:.\Generated_Source\PSoC4/StripLights_1.c **** 
  75:.\Generated_Source\PSoC4/StripLights_1.c **** 0x00005500, 0x00555500, 0x00AA5500, 0x00FF5500,  // 16, LtRed
  76:.\Generated_Source\PSoC4/StripLights_1.c **** 0x00005555, 0x00555555, 0x00AA5555, 0x00FF5555,  // 20, LtYellow
  77:.\Generated_Source\PSoC4/StripLights_1.c **** 0x000055AA, 0x005555AA, 0x00AA55AA, 0x00FF55AA,  // 24, 
  78:.\Generated_Source\PSoC4/StripLights_1.c **** 0x000055FF, 0x005555FF, 0x00AA55FF, 0x00FF55FF,  // 28,
  79:.\Generated_Source\PSoC4/StripLights_1.c **** 
  80:.\Generated_Source\PSoC4/StripLights_1.c **** 0x0000AA00, 0x0055AA00, 0x00AAAA00, 0x00FFAA00,  // 32, MRed
  81:.\Generated_Source\PSoC4/StripLights_1.c **** 0x0000AA55, 0x0055AA55, 0x00AAAA55, 0x00FFAA55,  // 36, 
  82:.\Generated_Source\PSoC4/StripLights_1.c **** 0x0000AAAA, 0x0055AAAA, 0x00AAAAAA, 0x00FFAAAA,  // 55, 
  83:.\Generated_Source\PSoC4/StripLights_1.c **** 0x0000AAFF, 0x0055AAFF, 0x00AAAAFF, 0x00FFAAFF,  // 44, 
  84:.\Generated_Source\PSoC4/StripLights_1.c **** 
  85:.\Generated_Source\PSoC4/StripLights_1.c **** 0x0000FF00, 0x0055FF00, 0x00AAFF00, 0x00FFFF00,  // 48, Red, ??, ??, Magenta
  86:.\Generated_Source\PSoC4/StripLights_1.c **** 0x0000FF55, 0x0055FF55, 0x00AAFF55, 0x00FFFF55,  // 52,
  87:.\Generated_Source\PSoC4/StripLights_1.c **** 0x0000FFAA, 0x0055FFAA, 0x00AAFFAA, 0x00FFFFAA,  // 56,
  88:.\Generated_Source\PSoC4/StripLights_1.c **** 0x0000FFFF, 0x0055FFFF, 0x00AAFFFF, 0x00FFFFFF,  // 60, Yellow,??, ??, White
  89:.\Generated_Source\PSoC4/StripLights_1.c **** 
ARM GAS  C:\Users\JONSHA~1\AppData\Local\Temp\ccGUQV9X.s 			page 3


  90:.\Generated_Source\PSoC4/StripLights_1.c **** // Misc ( 16 )  [ Index = 88 ]
  91:.\Generated_Source\PSoC4/StripLights_1.c **** 0x000080FF,  // SPRING_GREEN
  92:.\Generated_Source\PSoC4/StripLights_1.c **** 0x008000FF,  // TURQUOSE
  93:.\Generated_Source\PSoC4/StripLights_1.c **** 0x00FF00FF,  // CYAN
  94:.\Generated_Source\PSoC4/StripLights_1.c **** 0x00FF0080,  // OCEAN
  95:.\Generated_Source\PSoC4/StripLights_1.c **** 0x00FF8000,  // VIOLET
  96:.\Generated_Source\PSoC4/StripLights_1.c **** 0x0080FF00,  // RASPBERRY
  97:.\Generated_Source\PSoC4/StripLights_1.c **** 0x000000FF,  // GREEN
  98:.\Generated_Source\PSoC4/StripLights_1.c **** 0x00202020,  // DIM WHITE
  99:.\Generated_Source\PSoC4/StripLights_1.c **** 0x00200000,  // DIM BLUE
 100:.\Generated_Source\PSoC4/StripLights_1.c **** 0x10000000,  // INVISIBLE
 101:.\Generated_Source\PSoC4/StripLights_1.c **** 0x00000000,  // Spare
 102:.\Generated_Source\PSoC4/StripLights_1.c **** 0x00000000,  // Spare
 103:.\Generated_Source\PSoC4/StripLights_1.c **** 0x00000000,  // Spare
 104:.\Generated_Source\PSoC4/StripLights_1.c **** 0x00000000,  // Spare
 105:.\Generated_Source\PSoC4/StripLights_1.c **** 0x00000000,  // Spare
 106:.\Generated_Source\PSoC4/StripLights_1.c **** 0x00000000,  // Spare
 107:.\Generated_Source\PSoC4/StripLights_1.c **** 
 108:.\Generated_Source\PSoC4/StripLights_1.c **** // Temperture Color Blue to Red (16) [ Index = 104 ]
 109:.\Generated_Source\PSoC4/StripLights_1.c **** 0x00FF0000, 0x00F01000, 0x00E02000, 0x00D03000,
 110:.\Generated_Source\PSoC4/StripLights_1.c **** 0x00C04000, 0x00B05000, 0x00A06000, 0x00907000,
 111:.\Generated_Source\PSoC4/StripLights_1.c **** 0x00808000, 0x00709000, 0x0060A000, 0x0050B000,
 112:.\Generated_Source\PSoC4/StripLights_1.c **** 0x0040C000, 0x0030D000, 0x0020E000, 0x0000FF00
 113:.\Generated_Source\PSoC4/StripLights_1.c **** };
 114:.\Generated_Source\PSoC4/StripLights_1.c **** #else  //xxBBGGRR (WS2811)
 115:.\Generated_Source\PSoC4/StripLights_1.c **** const uint32 StripLights_1_CLUT[ ] = {
 116:.\Generated_Source\PSoC4/StripLights_1.c **** //     (24)   [ Index = 0 ]
 117:.\Generated_Source\PSoC4/StripLights_1.c **** 0x0000FFFF,  // 0 Yellow
 118:.\Generated_Source\PSoC4/StripLights_1.c **** 0x0000FFCC,
 119:.\Generated_Source\PSoC4/StripLights_1.c **** 0x0000FF99,
 120:.\Generated_Source\PSoC4/StripLights_1.c **** 0x0000FF33,
 121:.\Generated_Source\PSoC4/StripLights_1.c **** 0x0000FF00,  // 5  Green
 122:.\Generated_Source\PSoC4/StripLights_1.c **** 0x0066B300,
 123:.\Generated_Source\PSoC4/StripLights_1.c **** 0x00999900, 
 124:.\Generated_Source\PSoC4/StripLights_1.c **** 0x00B36600, 
 125:.\Generated_Source\PSoC4/StripLights_1.c **** 0x00CC3300,  // 9 Blue
 126:.\Generated_Source\PSoC4/StripLights_1.c **** 0x00B31919, 
 127:.\Generated_Source\PSoC4/StripLights_1.c **** 0x00990033, 
 128:.\Generated_Source\PSoC4/StripLights_1.c **** 0x00990040, 
 129:.\Generated_Source\PSoC4/StripLights_1.c **** 0x00990066, 
 130:.\Generated_Source\PSoC4/StripLights_1.c **** 0x00990099, 
 131:.\Generated_Source\PSoC4/StripLights_1.c **** 0x009900CC, 
 132:.\Generated_Source\PSoC4/StripLights_1.c **** 0x006600E6, 
 133:.\Generated_Source\PSoC4/StripLights_1.c **** 0x000000FF, 
 134:.\Generated_Source\PSoC4/StripLights_1.c **** 0x000033FF, 
 135:.\Generated_Source\PSoC4/StripLights_1.c **** 0x000066FF, 
 136:.\Generated_Source\PSoC4/StripLights_1.c **** 0x000080FF, 
 137:.\Generated_Source\PSoC4/StripLights_1.c **** 0x000099FF,  // 20 Orange
 138:.\Generated_Source\PSoC4/StripLights_1.c **** 0x0000B2FF, 
 139:.\Generated_Source\PSoC4/StripLights_1.c **** 0x0000CCFF, 
 140:.\Generated_Source\PSoC4/StripLights_1.c **** 0x0000E5FF,
 141:.\Generated_Source\PSoC4/StripLights_1.c **** // #24
 142:.\Generated_Source\PSoC4/StripLights_1.c **** 
 143:.\Generated_Source\PSoC4/StripLights_1.c **** //xxBBRRGG  (64)  [ Index = 24 ]
 144:.\Generated_Source\PSoC4/StripLights_1.c **** 0x00000000, 0x00550000, 0x00AA0000, 0x00FF0000,  // 0, Black,  LtBlue, MBlue, Blue
 145:.\Generated_Source\PSoC4/StripLights_1.c **** 0x00005500, 0x00555500, 0x00AA5500, 0x00FF5500,  // 4, LtGreen
 146:.\Generated_Source\PSoC4/StripLights_1.c **** 0x0000AA00, 0x0055AA00, 0x00AAAA00, 0x00FFAA00,  // 8, MGreen
ARM GAS  C:\Users\JONSHA~1\AppData\Local\Temp\ccGUQV9X.s 			page 4


 147:.\Generated_Source\PSoC4/StripLights_1.c **** 0x0000FF00, 0x0055FF00, 0x00AAFF00, 0x00FFFF00,  // 12 Green
 148:.\Generated_Source\PSoC4/StripLights_1.c **** 
 149:.\Generated_Source\PSoC4/StripLights_1.c **** 0x00000055, 0x00550055, 0x00AA0055, 0x00FF0055,  // 16, LtRed
 150:.\Generated_Source\PSoC4/StripLights_1.c **** 0x00005555, 0x00555555, 0x00AA5555, 0x00FF5555,  // 20, LtYellow
 151:.\Generated_Source\PSoC4/StripLights_1.c **** 0x0000AA55, 0x0055AA55, 0x00AAAA55, 0x00FFAA55,  // 24, 
 152:.\Generated_Source\PSoC4/StripLights_1.c **** 0x0000FF55, 0x0055FF55, 0x00AAFF55, 0x00FFFF55,  // 28,
 153:.\Generated_Source\PSoC4/StripLights_1.c **** 
 154:.\Generated_Source\PSoC4/StripLights_1.c **** 0x000000AA, 0x005500AA, 0x00AA00AA, 0x00FF00AA,  // 32, MRed
 155:.\Generated_Source\PSoC4/StripLights_1.c **** 0x000055AA, 0x005555AA, 0x00AA55AA, 0x00FF55AA,  // 36, 
 156:.\Generated_Source\PSoC4/StripLights_1.c **** 0x0000AAAA, 0x0055AAAA, 0x00AAAAAA, 0x00FFAAAA,  // 55, 
 157:.\Generated_Source\PSoC4/StripLights_1.c **** 0x0000FFAA, 0x0055FFAA, 0x00AAFFAA, 0x00FFFFAA,  // 44, 
 158:.\Generated_Source\PSoC4/StripLights_1.c **** 
 159:.\Generated_Source\PSoC4/StripLights_1.c **** 0x000000FF, 0x005500FF, 0x00AA00FF, 0x00F00FFF,  // 48, Red, ??, ??, Magenta
 160:.\Generated_Source\PSoC4/StripLights_1.c **** 0x000055FF, 0x005555FF, 0x00AA55FF, 0x00FF55FF,  // 52,
 161:.\Generated_Source\PSoC4/StripLights_1.c **** 0x0000AAFF, 0x0055AAFF, 0x00AAAAFF, 0x00FFAAFF,  // 56,
 162:.\Generated_Source\PSoC4/StripLights_1.c **** 0x0000FFFF, 0x0055FFFF, 0x00AAFFFF, 0x00FFFFFF,  // 60, Yellow,??, ??, White
 163:.\Generated_Source\PSoC4/StripLights_1.c **** 
 164:.\Generated_Source\PSoC4/StripLights_1.c **** // Misc ( 16 )  [ Index = 88 ]
 165:.\Generated_Source\PSoC4/StripLights_1.c **** 0x0000FF80,  // SPRING_GREEN
 166:.\Generated_Source\PSoC4/StripLights_1.c **** 0x0080FF00,  // TURQUOSE
 167:.\Generated_Source\PSoC4/StripLights_1.c **** 0x00FFFF00,  // CYAN
 168:.\Generated_Source\PSoC4/StripLights_1.c **** 0x00FF8000,  // OCEAN
 169:.\Generated_Source\PSoC4/StripLights_1.c **** 0x00FF0080,  // VIOLET
 170:.\Generated_Source\PSoC4/StripLights_1.c **** 0x008000FF,  // RASPBERRY
 171:.\Generated_Source\PSoC4/StripLights_1.c **** 0x0000FF00,  // GREEN
 172:.\Generated_Source\PSoC4/StripLights_1.c **** 0x00202020,  // DIM WHITE
 173:.\Generated_Source\PSoC4/StripLights_1.c **** 0x00200000,  // DIM BLUE
 174:.\Generated_Source\PSoC4/StripLights_1.c **** 0x10000000,  // INVISIBLE
 175:.\Generated_Source\PSoC4/StripLights_1.c **** 0x00000000,  // Spare
 176:.\Generated_Source\PSoC4/StripLights_1.c **** 0x00000000,  // Spare
 177:.\Generated_Source\PSoC4/StripLights_1.c **** 0x00000000,  // Spare
 178:.\Generated_Source\PSoC4/StripLights_1.c **** 0x00000000,  // Spare
 179:.\Generated_Source\PSoC4/StripLights_1.c **** 0x00000000,  // Spare
 180:.\Generated_Source\PSoC4/StripLights_1.c **** 0x00000000,  // Spare
 181:.\Generated_Source\PSoC4/StripLights_1.c **** 
 182:.\Generated_Source\PSoC4/StripLights_1.c **** // Temperture Color Blue to Red (16) [ Index = 104 ]
 183:.\Generated_Source\PSoC4/StripLights_1.c **** 0x00FF0000, 0x00F00010, 0x00E00020, 0x00D00030,
 184:.\Generated_Source\PSoC4/StripLights_1.c **** 0x00C00040, 0x00B00050, 0x00A00060, 0x00900070,
 185:.\Generated_Source\PSoC4/StripLights_1.c **** 0x00800080, 0x00700090, 0x006000A0, 0x005000B0,
 186:.\Generated_Source\PSoC4/StripLights_1.c **** 0x004000C0, 0x003000D0, 0x002000E0, 0x000000FF
 187:.\Generated_Source\PSoC4/StripLights_1.c **** };
 188:.\Generated_Source\PSoC4/StripLights_1.c **** #endif
 189:.\Generated_Source\PSoC4/StripLights_1.c **** 
 190:.\Generated_Source\PSoC4/StripLights_1.c **** 
 191:.\Generated_Source\PSoC4/StripLights_1.c **** 
 192:.\Generated_Source\PSoC4/StripLights_1.c **** /*******************************************************************************
 193:.\Generated_Source\PSoC4/StripLights_1.c **** * Function Name: StripLights_1_Start
 194:.\Generated_Source\PSoC4/StripLights_1.c **** ********************************************************************************
 195:.\Generated_Source\PSoC4/StripLights_1.c **** * Summary:
 196:.\Generated_Source\PSoC4/StripLights_1.c **** *  Initialize the hardware. 
 197:.\Generated_Source\PSoC4/StripLights_1.c **** *
 198:.\Generated_Source\PSoC4/StripLights_1.c **** * Parameters:  
 199:.\Generated_Source\PSoC4/StripLights_1.c **** *  void  
 200:.\Generated_Source\PSoC4/StripLights_1.c **** *
 201:.\Generated_Source\PSoC4/StripLights_1.c **** * Return: 
 202:.\Generated_Source\PSoC4/StripLights_1.c **** *  void
 203:.\Generated_Source\PSoC4/StripLights_1.c **** *
ARM GAS  C:\Users\JONSHA~1\AppData\Local\Temp\ccGUQV9X.s 			page 5


 204:.\Generated_Source\PSoC4/StripLights_1.c **** *******************************************************************************/
 205:.\Generated_Source\PSoC4/StripLights_1.c **** void StripLights_1_Start()
 206:.\Generated_Source\PSoC4/StripLights_1.c **** {
 207:.\Generated_Source\PSoC4/StripLights_1.c ****     extern uint8 StripLights_1_initvar;
 208:.\Generated_Source\PSoC4/StripLights_1.c ****     extern uint32 StripLights_1_refreshComplete;
 209:.\Generated_Source\PSoC4/StripLights_1.c **** 
 210:.\Generated_Source\PSoC4/StripLights_1.c ****     StripLights_1_ACTL0_REG = StripLights_1_DISABLE_FIFO;
 211:.\Generated_Source\PSoC4/StripLights_1.c ****     
 212:.\Generated_Source\PSoC4/StripLights_1.c ****     StripLights_1_Period   = StripLights_1_PERIOD-1;
 213:.\Generated_Source\PSoC4/StripLights_1.c ****     StripLights_1_Compare0 = StripLights_1_DATA_ZERO;
 214:.\Generated_Source\PSoC4/StripLights_1.c ****     StripLights_1_Compare1 = StripLights_1_DATA_ONE;
 215:.\Generated_Source\PSoC4/StripLights_1.c ****     
 216:.\Generated_Source\PSoC4/StripLights_1.c ****     StripLights_1_CONTROL = StripLights_1_ENABLE;
 217:.\Generated_Source\PSoC4/StripLights_1.c ****     StripLights_1_MemClear(StripLights_1_OFF);
 218:.\Generated_Source\PSoC4/StripLights_1.c ****     StripLights_1_CONTROL = StripLights_1_DISABLE;
 219:.\Generated_Source\PSoC4/StripLights_1.c ****     
 220:.\Generated_Source\PSoC4/StripLights_1.c ****     StripLights_1_SetFont( StripLights_1_FONT_5X7);
 221:.\Generated_Source\PSoC4/StripLights_1.c ****     
 222:.\Generated_Source\PSoC4/StripLights_1.c ****     /* Set no dimming, full brightness */
 223:.\Generated_Source\PSoC4/StripLights_1.c ****     StripLights_1_Dim(0); 
 224:.\Generated_Source\PSoC4/StripLights_1.c **** 
 225:.\Generated_Source\PSoC4/StripLights_1.c ****     
 226:.\Generated_Source\PSoC4/StripLights_1.c ****     if(StripLights_1_initvar == 0)
 227:.\Generated_Source\PSoC4/StripLights_1.c ****     {
 228:.\Generated_Source\PSoC4/StripLights_1.c **** 
 229:.\Generated_Source\PSoC4/StripLights_1.c ****         StripLights_1_initvar = 1;
 230:.\Generated_Source\PSoC4/StripLights_1.c ****  
 231:.\Generated_Source\PSoC4/StripLights_1.c ****          /* Start and set interrupt vector */
 232:.\Generated_Source\PSoC4/StripLights_1.c **** 
 233:.\Generated_Source\PSoC4/StripLights_1.c **** #if(StripLights_1_TRANSFER == StripLights_1_TRANSFER_ISR)
 234:.\Generated_Source\PSoC4/StripLights_1.c ****        {
 235:.\Generated_Source\PSoC4/StripLights_1.c ****            StripLights_1_cisr_StartEx(StripLights_1_CISR);
 236:.\Generated_Source\PSoC4/StripLights_1.c **** 		   StripLights_1_fisr_StartEx(StripLights_1_FISR);
 237:.\Generated_Source\PSoC4/StripLights_1.c ****        }
 238:.\Generated_Source\PSoC4/StripLights_1.c **** #endif       
 239:.\Generated_Source\PSoC4/StripLights_1.c ****        if(StripLights_1_TRANSFER == StripLights_1_TRANSFER_FIRMWARE)
 240:.\Generated_Source\PSoC4/StripLights_1.c ****        {
 241:.\Generated_Source\PSoC4/StripLights_1.c ****            StripLights_1_CONTROL = StripLights_1_ENABLE;    
 242:.\Generated_Source\PSoC4/StripLights_1.c ****        }
 243:.\Generated_Source\PSoC4/StripLights_1.c ****     }
 244:.\Generated_Source\PSoC4/StripLights_1.c ****     StripLights_1_refreshComplete = 1;
 245:.\Generated_Source\PSoC4/StripLights_1.c **** }
 246:.\Generated_Source\PSoC4/StripLights_1.c **** 
 247:.\Generated_Source\PSoC4/StripLights_1.c **** 
 248:.\Generated_Source\PSoC4/StripLights_1.c **** /*******************************************************************************
 249:.\Generated_Source\PSoC4/StripLights_1.c **** * Function Name: StripLights_1_Trigger
 250:.\Generated_Source\PSoC4/StripLights_1.c **** ********************************************************************************
 251:.\Generated_Source\PSoC4/StripLights_1.c **** * Summary:
 252:.\Generated_Source\PSoC4/StripLights_1.c **** *   Update the LEDs with graphics memory.
 253:.\Generated_Source\PSoC4/StripLights_1.c **** *
 254:.\Generated_Source\PSoC4/StripLights_1.c **** * Parameters:  
 255:.\Generated_Source\PSoC4/StripLights_1.c **** *  void  
 256:.\Generated_Source\PSoC4/StripLights_1.c **** *
 257:.\Generated_Source\PSoC4/StripLights_1.c **** * Return: 
 258:.\Generated_Source\PSoC4/StripLights_1.c **** *  void
 259:.\Generated_Source\PSoC4/StripLights_1.c **** *
 260:.\Generated_Source\PSoC4/StripLights_1.c **** *******************************************************************************/
ARM GAS  C:\Users\JONSHA~1\AppData\Local\Temp\ccGUQV9X.s 			page 6


 261:.\Generated_Source\PSoC4/StripLights_1.c **** void StripLights_1_Trigger(uint32 rst)
 262:.\Generated_Source\PSoC4/StripLights_1.c **** {
 263:.\Generated_Source\PSoC4/StripLights_1.c ****     uint32 color;
 264:.\Generated_Source\PSoC4/StripLights_1.c ****     
 265:.\Generated_Source\PSoC4/StripLights_1.c ****     if(rst) 
 266:.\Generated_Source\PSoC4/StripLights_1.c ****     {
 267:.\Generated_Source\PSoC4/StripLights_1.c ****         StripLights_1_row = 0;  /* Reset the row */
 268:.\Generated_Source\PSoC4/StripLights_1.c ****         StripLights_1_Channel = 0;
 269:.\Generated_Source\PSoC4/StripLights_1.c ****     }
 270:.\Generated_Source\PSoC4/StripLights_1.c ****     
 271:.\Generated_Source\PSoC4/StripLights_1.c ****     #if(StripLights_1_MEMORY_TYPE == StripLights_1_MEMORY_RGB)
 272:.\Generated_Source\PSoC4/StripLights_1.c ****        color = StripLights_1_ledArray[StripLights_1_row][0];
 273:.\Generated_Source\PSoC4/StripLights_1.c ****     #else  /* Else use lookup table */
 274:.\Generated_Source\PSoC4/StripLights_1.c ****        color = StripLights_1_CLUT[ (StripLights_1_ledArray[StripLights_1_row][0]) ];
 275:.\Generated_Source\PSoC4/StripLights_1.c ****     #endif
 276:.\Generated_Source\PSoC4/StripLights_1.c ****     
 277:.\Generated_Source\PSoC4/StripLights_1.c ****      color = (color >> StripLights_1_DimShift) & StripLights_1_DimMask;
 278:.\Generated_Source\PSoC4/StripLights_1.c ****      
 279:.\Generated_Source\PSoC4/StripLights_1.c ****     StripLights_1_DATA = (uint8)(color & 0x000000FF);  // Write Red
 280:.\Generated_Source\PSoC4/StripLights_1.c ****     color = color >> 8;
 281:.\Generated_Source\PSoC4/StripLights_1.c ****     StripLights_1_DATA = (uint8)(color & 0x000000FF);  // Write green
 282:.\Generated_Source\PSoC4/StripLights_1.c ****     color = color >> 8;
 283:.\Generated_Source\PSoC4/StripLights_1.c ****     StripLights_1_DATA = (uint8)(color & 0x000000FF);  // Write green
 284:.\Generated_Source\PSoC4/StripLights_1.c ****     
 285:.\Generated_Source\PSoC4/StripLights_1.c ****     StripLights_1_ledIndex = 1;
 286:.\Generated_Source\PSoC4/StripLights_1.c ****  //   StripLights_1_CONTROL = StripLights_1_ENABLE | StripLights_1_FIFO_IRQ_EN; 
 287:.\Generated_Source\PSoC4/StripLights_1.c **** 	
 288:.\Generated_Source\PSoC4/StripLights_1.c **** 	StripLights_1_CONTROL = StripLights_1_ENABLE | StripLights_1_XFRCMPT_IRQ_EN | StripLights_1_FIFO_I
 289:.\Generated_Source\PSoC4/StripLights_1.c ****     StripLights_1_refreshComplete = 0;
 290:.\Generated_Source\PSoC4/StripLights_1.c **** }
 291:.\Generated_Source\PSoC4/StripLights_1.c **** 
 292:.\Generated_Source\PSoC4/StripLights_1.c **** /*******************************************************************************
 293:.\Generated_Source\PSoC4/StripLights_1.c **** * Function Name: StripLights_1_Ready
 294:.\Generated_Source\PSoC4/StripLights_1.c **** ********************************************************************************
 295:.\Generated_Source\PSoC4/StripLights_1.c **** * Summary:
 296:.\Generated_Source\PSoC4/StripLights_1.c **** *  Checks to see if transfer is complete.
 297:.\Generated_Source\PSoC4/StripLights_1.c **** *
 298:.\Generated_Source\PSoC4/StripLights_1.c **** * Parameters:  
 299:.\Generated_Source\PSoC4/StripLights_1.c **** *  none  
 300:.\Generated_Source\PSoC4/StripLights_1.c **** *
 301:.\Generated_Source\PSoC4/StripLights_1.c **** * Return: 
 302:.\Generated_Source\PSoC4/StripLights_1.c **** *  Zero if not complete, non-zero if transfer complete.
 303:.\Generated_Source\PSoC4/StripLights_1.c **** *
 304:.\Generated_Source\PSoC4/StripLights_1.c **** *******************************************************************************/
 305:.\Generated_Source\PSoC4/StripLights_1.c **** uint32 StripLights_1_Ready(void)
 306:.\Generated_Source\PSoC4/StripLights_1.c **** {
 307:.\Generated_Source\PSoC4/StripLights_1.c ****     if(StripLights_1_refreshComplete )
 308:.\Generated_Source\PSoC4/StripLights_1.c ****     {
 309:.\Generated_Source\PSoC4/StripLights_1.c ****         StripLights_1_CONTROL = StripLights_1_DISABLE;
 310:.\Generated_Source\PSoC4/StripLights_1.c ****         return((uint32)1);
 311:.\Generated_Source\PSoC4/StripLights_1.c ****     }
 312:.\Generated_Source\PSoC4/StripLights_1.c ****     else
 313:.\Generated_Source\PSoC4/StripLights_1.c ****     {
 314:.\Generated_Source\PSoC4/StripLights_1.c ****          return((uint32)0);
 315:.\Generated_Source\PSoC4/StripLights_1.c ****     }
 316:.\Generated_Source\PSoC4/StripLights_1.c **** }
 317:.\Generated_Source\PSoC4/StripLights_1.c **** 
ARM GAS  C:\Users\JONSHA~1\AppData\Local\Temp\ccGUQV9X.s 			page 7


 318:.\Generated_Source\PSoC4/StripLights_1.c **** 
 319:.\Generated_Source\PSoC4/StripLights_1.c **** /*******************************************************************************
 320:.\Generated_Source\PSoC4/StripLights_1.c **** * Function Name: StripLights_1_Stop
 321:.\Generated_Source\PSoC4/StripLights_1.c **** ********************************************************************************
 322:.\Generated_Source\PSoC4/StripLights_1.c **** * Summary:
 323:.\Generated_Source\PSoC4/StripLights_1.c **** *  Stop all transfers.
 324:.\Generated_Source\PSoC4/StripLights_1.c **** *
 325:.\Generated_Source\PSoC4/StripLights_1.c **** * Parameters:  
 326:.\Generated_Source\PSoC4/StripLights_1.c **** *  None 
 327:.\Generated_Source\PSoC4/StripLights_1.c **** *
 328:.\Generated_Source\PSoC4/StripLights_1.c **** * Return: 
 329:.\Generated_Source\PSoC4/StripLights_1.c **** *  void
 330:.\Generated_Source\PSoC4/StripLights_1.c **** *
 331:.\Generated_Source\PSoC4/StripLights_1.c **** *******************************************************************************/
 332:.\Generated_Source\PSoC4/StripLights_1.c **** void StripLights_1_Stop()
 333:.\Generated_Source\PSoC4/StripLights_1.c **** {
 334:.\Generated_Source\PSoC4/StripLights_1.c **** 
 335:.\Generated_Source\PSoC4/StripLights_1.c ****     StripLights_1_CONTROL = StripLights_1_DISABLE;
 336:.\Generated_Source\PSoC4/StripLights_1.c **** }
 337:.\Generated_Source\PSoC4/StripLights_1.c **** 
 338:.\Generated_Source\PSoC4/StripLights_1.c **** 
 339:.\Generated_Source\PSoC4/StripLights_1.c **** /*******************************************************************************
 340:.\Generated_Source\PSoC4/StripLights_1.c **** * Function Name: StripLights_1_ColorInc
 341:.\Generated_Source\PSoC4/StripLights_1.c **** ********************************************************************************
 342:.\Generated_Source\PSoC4/StripLights_1.c **** * Summary:
 343:.\Generated_Source\PSoC4/StripLights_1.c **** *  Increment color throught the color lookup table.
 344:.\Generated_Source\PSoC4/StripLights_1.c **** *
 345:.\Generated_Source\PSoC4/StripLights_1.c **** * Parameters:  
 346:.\Generated_Source\PSoC4/StripLights_1.c **** *  uint32 incValue: Increment through color table by incValue. 
 347:.\Generated_Source\PSoC4/StripLights_1.c **** *
 348:.\Generated_Source\PSoC4/StripLights_1.c **** * Return: Color at next location.
 349:.\Generated_Source\PSoC4/StripLights_1.c **** *  
 350:.\Generated_Source\PSoC4/StripLights_1.c **** *
 351:.\Generated_Source\PSoC4/StripLights_1.c **** *******************************************************************************/
 352:.\Generated_Source\PSoC4/StripLights_1.c **** uint32 StripLights_1_ColorInc(uint32 incValue)
 353:.\Generated_Source\PSoC4/StripLights_1.c **** {
 354:.\Generated_Source\PSoC4/StripLights_1.c ****     uint32 color;
 355:.\Generated_Source\PSoC4/StripLights_1.c ****     extern const uint32 StripLights_1_CLUT[];
 356:.\Generated_Source\PSoC4/StripLights_1.c ****     static uint32 colorIndex = 0;
 357:.\Generated_Source\PSoC4/StripLights_1.c ****     
 358:.\Generated_Source\PSoC4/StripLights_1.c ****     colorIndex += incValue;
 359:.\Generated_Source\PSoC4/StripLights_1.c ****     colorIndex = colorIndex % StripLights_1_COLOR_WHEEL_SIZE;
 360:.\Generated_Source\PSoC4/StripLights_1.c **** 
 361:.\Generated_Source\PSoC4/StripLights_1.c ****     #if(StripLights_1_MEMORY_TYPE == StripLights_1_MEMORY_RGB)
 362:.\Generated_Source\PSoC4/StripLights_1.c ****        color = StripLights_1_CLUT[ colorIndex ];
 363:.\Generated_Source\PSoC4/StripLights_1.c ****     #else
 364:.\Generated_Source\PSoC4/StripLights_1.c ****         color = colorIndex;
 365:.\Generated_Source\PSoC4/StripLights_1.c ****     #endif
 366:.\Generated_Source\PSoC4/StripLights_1.c **** 
 367:.\Generated_Source\PSoC4/StripLights_1.c **** 
 368:.\Generated_Source\PSoC4/StripLights_1.c ****     return(color);
 369:.\Generated_Source\PSoC4/StripLights_1.c **** }
 370:.\Generated_Source\PSoC4/StripLights_1.c **** /*****************************************************************************
 371:.\Generated_Source\PSoC4/StripLights_1.c **** * Function Name: StripLights_1_FISR
 372:.\Generated_Source\PSoC4/StripLights_1.c **** ******************************************************************************
 373:.\Generated_Source\PSoC4/StripLights_1.c **** *
 374:.\Generated_Source\PSoC4/StripLights_1.c **** * Summary:
ARM GAS  C:\Users\JONSHA~1\AppData\Local\Temp\ccGUQV9X.s 			page 8


 375:.\Generated_Source\PSoC4/StripLights_1.c **** *  Interrupt service handler for data transfer for each LED 
 376:.\Generated_Source\PSoC4/StripLights_1.c **** *
 377:.\Generated_Source\PSoC4/StripLights_1.c **** * Parameters:  
 378:.\Generated_Source\PSoC4/StripLights_1.c **** *  void
 379:.\Generated_Source\PSoC4/StripLights_1.c **** *
 380:.\Generated_Source\PSoC4/StripLights_1.c **** * Return: 
 381:.\Generated_Source\PSoC4/StripLights_1.c **** *  void 
 382:.\Generated_Source\PSoC4/StripLights_1.c **** *
 383:.\Generated_Source\PSoC4/StripLights_1.c **** * Reentrant: 
 384:.\Generated_Source\PSoC4/StripLights_1.c **** *  No
 385:.\Generated_Source\PSoC4/StripLights_1.c **** *
 386:.\Generated_Source\PSoC4/StripLights_1.c **** *****************************************************************************/
 387:.\Generated_Source\PSoC4/StripLights_1.c **** CY_ISR( StripLights_1_FISR)
 388:.\Generated_Source\PSoC4/StripLights_1.c **** {
  26              		.loc 1 388 0
  27              		.cfi_startproc
 389:.\Generated_Source\PSoC4/StripLights_1.c ****     extern uint32  StripLights_1_DimMask;
 390:.\Generated_Source\PSoC4/StripLights_1.c ****     extern uint32  StripLights_1_DimShift;
 391:.\Generated_Source\PSoC4/StripLights_1.c ****     uint32 static color;
 392:.\Generated_Source\PSoC4/StripLights_1.c **** 
 393:.\Generated_Source\PSoC4/StripLights_1.c ****     if(StripLights_1_ledIndex < StripLights_1_ARRAY_COLS)
  28              		.loc 1 393 0
  29 0000 124B     		ldr	r3, .L4
  30 0002 1B68     		ldr	r3, [r3]
  31 0004 F32B     		cmp	r3, #243
  32 0006 1CD8     		bhi	.L2
 394:.\Generated_Source\PSoC4/StripLights_1.c ****     {
 395:.\Generated_Source\PSoC4/StripLights_1.c ****         #if(StripLights_1_MEMORY_TYPE == StripLights_1_MEMORY_RGB)
 396:.\Generated_Source\PSoC4/StripLights_1.c ****             color = StripLights_1_ledArray[StripLights_1_row][StripLights_1_ledIndex++];
 397:.\Generated_Source\PSoC4/StripLights_1.c ****         #else  /* Else use lookup table */
 398:.\Generated_Source\PSoC4/StripLights_1.c ****             color = StripLights_1_CLUT[ (StripLights_1_ledArray[StripLights_1_row][StripLights_1_le
  33              		.loc 1 398 0
  34 0008 1049     		ldr	r1, .L4
  35 000a 5A1C     		add	r2, r3, #1
  36 000c 0A60     		str	r2, [r1]
  37 000e F422     		mov	r2, #244
  38 0010 4868     		ldr	r0, [r1, #4]
  39 0012 4243     		mul	r2, r0
  40 0014 D318     		add	r3, r2, r3
  41 0016 0E4A     		ldr	r2, .L4+4
  42 0018 9B5C     		ldrb	r3, [r3, r2]
  43 001a 9B00     		lsl	r3, r3, #2
  44 001c 0D4A     		ldr	r2, .L4+8
  45 001e 9B58     		ldr	r3, [r3, r2]
 399:.\Generated_Source\PSoC4/StripLights_1.c ****         #endif
 400:.\Generated_Source\PSoC4/StripLights_1.c **** 
 401:.\Generated_Source\PSoC4/StripLights_1.c ****         color = (color >> StripLights_1_DimShift) & StripLights_1_DimMask;  
  46              		.loc 1 401 0
  47 0020 0D4A     		ldr	r2, .L4+12
  48 0022 1268     		ldr	r2, [r2]
  49 0024 D340     		lsr	r3, r3, r2
  50 0026 0D4A     		ldr	r2, .L4+16
  51 0028 1268     		ldr	r2, [r2]
  52 002a 1340     		and	r3, r2
 402:.\Generated_Source\PSoC4/StripLights_1.c **** 
 403:.\Generated_Source\PSoC4/StripLights_1.c ****         StripLights_1_DATA = (uint8)(color & 0x000000FF);  // Write Green
  53              		.loc 1 403 0
ARM GAS  C:\Users\JONSHA~1\AppData\Local\Temp\ccGUQV9X.s 			page 9


  54 002c D8B2     		uxtb	r0, r3
  55 002e 0C4A     		ldr	r2, .L4+20
  56 0030 1070     		strb	r0, [r2]
 404:.\Generated_Source\PSoC4/StripLights_1.c ****         color = color >> 8;
  57              		.loc 1 404 0
  58 0032 180A     		lsr	r0, r3, #8
 405:.\Generated_Source\PSoC4/StripLights_1.c ****         StripLights_1_DATA = (uint8)(color & 0x000000FF);  // Write Red
  59              		.loc 1 405 0
  60 0034 C0B2     		uxtb	r0, r0
  61 0036 1070     		strb	r0, [r2]
 406:.\Generated_Source\PSoC4/StripLights_1.c ****         color = color >> 8;
  62              		.loc 1 406 0
  63 0038 1B0C     		lsr	r3, r3, #16
  64 003a 8B60     		str	r3, [r1, #8]
 407:.\Generated_Source\PSoC4/StripLights_1.c ****         StripLights_1_DATA = (uint8)(color & 0x000000FF);  // Write Blue
  65              		.loc 1 407 0
  66 003c DBB2     		uxtb	r3, r3
  67 003e 1370     		strb	r3, [r2]
  68 0040 02E0     		b	.L1
  69              	.L2:
 408:.\Generated_Source\PSoC4/StripLights_1.c ****     }
 409:.\Generated_Source\PSoC4/StripLights_1.c ****     else 
 410:.\Generated_Source\PSoC4/StripLights_1.c ****     {
 411:.\Generated_Source\PSoC4/StripLights_1.c ****          StripLights_1_CONTROL = StripLights_1_ENABLE | StripLights_1_XFRCMPT_IRQ_EN; 
  70              		.loc 1 411 0
  71 0042 1122     		mov	r2, #17
  72 0044 074B     		ldr	r3, .L4+24
  73 0046 1A70     		strb	r2, [r3]
  74              	.L1:
 412:.\Generated_Source\PSoC4/StripLights_1.c ****     }
 413:.\Generated_Source\PSoC4/StripLights_1.c **** 
 414:.\Generated_Source\PSoC4/StripLights_1.c **** }
  75              		.loc 1 414 0
  76              		@ sp needed
  77 0048 7047     		bx	lr
  78              	.L5:
  79 004a C046     		.align	2
  80              	.L4:
  81 004c 00000000 		.word	.LANCHOR0
  82 0050 00000000 		.word	StripLights_1_ledArray
  83 0054 00000000 		.word	.LANCHOR1
  84 0058 00000000 		.word	StripLights_1_DimShift
  85 005c 00000000 		.word	StripLights_1_DimMask
  86 0060 42000F40 		.word	1074724930
  87 0064 71000F40 		.word	1074724977
  88              		.cfi_endproc
  89              	.LFE39:
  90              		.size	StripLights_1_FISR, .-StripLights_1_FISR
  91              		.section	.text.StripLights_1_CISR,"ax",%progbits
  92              		.align	2
  93              		.global	StripLights_1_CISR
  94              		.code	16
  95              		.thumb_func
  96              		.type	StripLights_1_CISR, %function
  97              	StripLights_1_CISR:
  98              	.LFB40:
 415:.\Generated_Source\PSoC4/StripLights_1.c **** 
ARM GAS  C:\Users\JONSHA~1\AppData\Local\Temp\ccGUQV9X.s 			page 10


 416:.\Generated_Source\PSoC4/StripLights_1.c **** /*****************************************************************************
 417:.\Generated_Source\PSoC4/StripLights_1.c **** * Function Name: StripLights_1_CISR
 418:.\Generated_Source\PSoC4/StripLights_1.c **** ******************************************************************************
 419:.\Generated_Source\PSoC4/StripLights_1.c **** *
 420:.\Generated_Source\PSoC4/StripLights_1.c **** * Summary:
 421:.\Generated_Source\PSoC4/StripLights_1.c **** *  Interrupt service handler after each row is complete.
 422:.\Generated_Source\PSoC4/StripLights_1.c **** *
 423:.\Generated_Source\PSoC4/StripLights_1.c **** * Parameters:  
 424:.\Generated_Source\PSoC4/StripLights_1.c **** *  void
 425:.\Generated_Source\PSoC4/StripLights_1.c **** *
 426:.\Generated_Source\PSoC4/StripLights_1.c **** * Return: 
 427:.\Generated_Source\PSoC4/StripLights_1.c **** *  void 
 428:.\Generated_Source\PSoC4/StripLights_1.c **** *
 429:.\Generated_Source\PSoC4/StripLights_1.c **** * Reentrant: 
 430:.\Generated_Source\PSoC4/StripLights_1.c **** *  No
 431:.\Generated_Source\PSoC4/StripLights_1.c **** *
 432:.\Generated_Source\PSoC4/StripLights_1.c **** *****************************************************************************/
 433:.\Generated_Source\PSoC4/StripLights_1.c **** CY_ISR( StripLights_1_CISR)
 434:.\Generated_Source\PSoC4/StripLights_1.c **** {
  99              		.loc 1 434 0
 100              		.cfi_startproc
 435:.\Generated_Source\PSoC4/StripLights_1.c ****     extern uint32  StripLights_1_DimMask;
 436:.\Generated_Source\PSoC4/StripLights_1.c ****     extern uint32  StripLights_1_DimShift;
 437:.\Generated_Source\PSoC4/StripLights_1.c ****     uint32 static color;
 438:.\Generated_Source\PSoC4/StripLights_1.c ****     extern uint32 StripLights_1_refreshComplete;
 439:.\Generated_Source\PSoC4/StripLights_1.c **** 
 440:.\Generated_Source\PSoC4/StripLights_1.c **** 	StripLights_1_CONTROL = StripLights_1_ENABLE |StripLights_1_NEXT_ROW;
 101              		.loc 1 440 0
 102 0000 2122     		mov	r2, #33
 103 0002 174B     		ldr	r3, .L9
 104 0004 1A70     		strb	r2, [r3]
 441:.\Generated_Source\PSoC4/StripLights_1.c ****     StripLights_1_row++;
 105              		.loc 1 441 0
 106 0006 174A     		ldr	r2, .L9+4
 107 0008 5368     		ldr	r3, [r2, #4]
 108 000a 0133     		add	r3, r3, #1
 109 000c 5360     		str	r3, [r2, #4]
 442:.\Generated_Source\PSoC4/StripLights_1.c ****     if( StripLights_1_row < StripLights_1_ARRAY_ROWS)  /* More Rows to do  */
 110              		.loc 1 442 0
 111 000e 002B     		cmp	r3, #0
 112 0010 21D1     		bne	.L7
 443:.\Generated_Source\PSoC4/StripLights_1.c ****     {
 444:.\Generated_Source\PSoC4/StripLights_1.c ****         StripLights_1_Channel = StripLights_1_row;  
 113              		.loc 1 444 0
 114 0012 DBB2     		uxtb	r3, r3
 115 0014 144A     		ldr	r2, .L9+8
 116 0016 1370     		strb	r3, [r2]
 445:.\Generated_Source\PSoC4/StripLights_1.c **** 
 446:.\Generated_Source\PSoC4/StripLights_1.c **** 		#if(StripLights_1_MEMORY_TYPE == StripLights_1_MEMORY_RGB)
 447:.\Generated_Source\PSoC4/StripLights_1.c ****              color = StripLights_1_ledArray[StripLights_1_row][0];
 448:.\Generated_Source\PSoC4/StripLights_1.c ****         #else  /* Else use lookup table */
 449:.\Generated_Source\PSoC4/StripLights_1.c ****              color = StripLights_1_CLUT[ (StripLights_1_ledArray[StripLights_1_row][0]) ];
 117              		.loc 1 449 0
 118 0018 124A     		ldr	r2, .L9+4
 119 001a F423     		mov	r3, #244
 120 001c 5168     		ldr	r1, [r2, #4]
 121 001e 4B43     		mul	r3, r1
ARM GAS  C:\Users\JONSHA~1\AppData\Local\Temp\ccGUQV9X.s 			page 11


 122 0020 1249     		ldr	r1, .L9+12
 123 0022 5B5C     		ldrb	r3, [r3, r1]
 124 0024 9B00     		lsl	r3, r3, #2
 125 0026 1249     		ldr	r1, .L9+16
 126 0028 5B58     		ldr	r3, [r3, r1]
 450:.\Generated_Source\PSoC4/StripLights_1.c ****         #endif
 451:.\Generated_Source\PSoC4/StripLights_1.c **** 
 452:.\Generated_Source\PSoC4/StripLights_1.c ****         color = (color >> StripLights_1_DimShift) & StripLights_1_DimMask;
 127              		.loc 1 452 0
 128 002a 1249     		ldr	r1, .L9+20
 129 002c 0968     		ldr	r1, [r1]
 130 002e CB40     		lsr	r3, r3, r1
 131 0030 1149     		ldr	r1, .L9+24
 132 0032 0968     		ldr	r1, [r1]
 133 0034 0B40     		and	r3, r1
 453:.\Generated_Source\PSoC4/StripLights_1.c ****  
 454:.\Generated_Source\PSoC4/StripLights_1.c ****         StripLights_1_DATA = (uint8)(color & 0x000000FF);  /* Write Red   */
 134              		.loc 1 454 0
 135 0036 D8B2     		uxtb	r0, r3
 136 0038 1049     		ldr	r1, .L9+28
 137 003a 0870     		strb	r0, [r1]
 455:.\Generated_Source\PSoC4/StripLights_1.c ****         color = color >> 8;
 138              		.loc 1 455 0
 139 003c 180A     		lsr	r0, r3, #8
 456:.\Generated_Source\PSoC4/StripLights_1.c ****         StripLights_1_DATA = (uint8)(color & 0x000000FF);  /* Write green */
 140              		.loc 1 456 0
 141 003e C0B2     		uxtb	r0, r0
 142 0040 0870     		strb	r0, [r1]
 457:.\Generated_Source\PSoC4/StripLights_1.c ****         color = color >> 8;
 143              		.loc 1 457 0
 144 0042 1B0C     		lsr	r3, r3, #16
 145 0044 D360     		str	r3, [r2, #12]
 458:.\Generated_Source\PSoC4/StripLights_1.c ****         StripLights_1_DATA = (uint8)(color & 0x000000FF);  /* Write green */
 146              		.loc 1 458 0
 147 0046 DBB2     		uxtb	r3, r3
 148 0048 0B70     		strb	r3, [r1]
 459:.\Generated_Source\PSoC4/StripLights_1.c **** 
 460:.\Generated_Source\PSoC4/StripLights_1.c ****         StripLights_1_ledIndex = 1;
 149              		.loc 1 460 0
 150 004a 0123     		mov	r3, #1
 151 004c 1360     		str	r3, [r2]
 461:.\Generated_Source\PSoC4/StripLights_1.c **** 		StripLights_1_CONTROL = StripLights_1_ENABLE | StripLights_1_FIFO_IRQ_EN; 
 152              		.loc 1 461 0
 153 004e 0922     		mov	r2, #9
 154 0050 034B     		ldr	r3, .L9
 155 0052 1A70     		strb	r2, [r3]
 156 0054 02E0     		b	.L6
 157              	.L7:
 462:.\Generated_Source\PSoC4/StripLights_1.c **** 		
 463:.\Generated_Source\PSoC4/StripLights_1.c ****     }
 464:.\Generated_Source\PSoC4/StripLights_1.c ****     else
 465:.\Generated_Source\PSoC4/StripLights_1.c ****     {
 466:.\Generated_Source\PSoC4/StripLights_1.c ****         StripLights_1_refreshComplete = 1u;
 158              		.loc 1 466 0
 159 0056 0122     		mov	r2, #1
 160 0058 094B     		ldr	r3, .L9+32
 161 005a 1A60     		str	r2, [r3]
ARM GAS  C:\Users\JONSHA~1\AppData\Local\Temp\ccGUQV9X.s 			page 12


 162              	.L6:
 467:.\Generated_Source\PSoC4/StripLights_1.c ****     }
 468:.\Generated_Source\PSoC4/StripLights_1.c ****   
 469:.\Generated_Source\PSoC4/StripLights_1.c **** }
 163              		.loc 1 469 0
 164              		@ sp needed
 165 005c 7047     		bx	lr
 166              	.L10:
 167 005e C046     		.align	2
 168              	.L9:
 169 0060 71000F40 		.word	1074724977
 170 0064 00000000 		.word	.LANCHOR0
 171 0068 70000F40 		.word	1074724976
 172 006c 00000000 		.word	StripLights_1_ledArray
 173 0070 00000000 		.word	.LANCHOR1
 174 0074 00000000 		.word	StripLights_1_DimShift
 175 0078 00000000 		.word	StripLights_1_DimMask
 176 007c 42000F40 		.word	1074724930
 177 0080 00000000 		.word	StripLights_1_refreshComplete
 178              		.cfi_endproc
 179              	.LFE40:
 180              		.size	StripLights_1_CISR, .-StripLights_1_CISR
 181              		.section	.text.StripLights_1_Trigger,"ax",%progbits
 182              		.align	2
 183              		.global	StripLights_1_Trigger
 184              		.code	16
 185              		.thumb_func
 186              		.type	StripLights_1_Trigger, %function
 187              	StripLights_1_Trigger:
 188              	.LFB35:
 262:.\Generated_Source\PSoC4/StripLights_1.c ****     uint32 color;
 189              		.loc 1 262 0
 190              		.cfi_startproc
 191              	.LVL0:
 265:.\Generated_Source\PSoC4/StripLights_1.c ****     {
 192              		.loc 1 265 0
 193 0000 0028     		cmp	r0, #0
 194 0002 04D0     		beq	.L12
 267:.\Generated_Source\PSoC4/StripLights_1.c ****         StripLights_1_Channel = 0;
 195              		.loc 1 267 0
 196 0004 0023     		mov	r3, #0
 197 0006 124A     		ldr	r2, .L13
 198 0008 5360     		str	r3, [r2, #4]
 268:.\Generated_Source\PSoC4/StripLights_1.c ****     }
 199              		.loc 1 268 0
 200 000a 124A     		ldr	r2, .L13+4
 201 000c 1370     		strb	r3, [r2]
 202              	.L12:
 274:.\Generated_Source\PSoC4/StripLights_1.c ****     #endif
 203              		.loc 1 274 0
 204 000e 1048     		ldr	r0, .L13
 205              	.LVL1:
 206 0010 F423     		mov	r3, #244
 207 0012 4268     		ldr	r2, [r0, #4]
 208 0014 5343     		mul	r3, r2
 209 0016 104A     		ldr	r2, .L13+8
 210 0018 9B5C     		ldrb	r3, [r3, r2]
ARM GAS  C:\Users\JONSHA~1\AppData\Local\Temp\ccGUQV9X.s 			page 13


 211 001a 9B00     		lsl	r3, r3, #2
 212 001c 0F4A     		ldr	r2, .L13+12
 213 001e 9B58     		ldr	r3, [r3, r2]
 214              	.LVL2:
 277:.\Generated_Source\PSoC4/StripLights_1.c ****      
 215              		.loc 1 277 0
 216 0020 0F4A     		ldr	r2, .L13+16
 217 0022 1268     		ldr	r2, [r2]
 218 0024 D340     		lsr	r3, r3, r2
 219              	.LVL3:
 220 0026 0F4A     		ldr	r2, .L13+20
 221 0028 1268     		ldr	r2, [r2]
 222 002a 1340     		and	r3, r2
 223              	.LVL4:
 279:.\Generated_Source\PSoC4/StripLights_1.c ****     color = color >> 8;
 224              		.loc 1 279 0
 225 002c D9B2     		uxtb	r1, r3
 226 002e 0E4A     		ldr	r2, .L13+24
 227 0030 1170     		strb	r1, [r2]
 280:.\Generated_Source\PSoC4/StripLights_1.c ****     StripLights_1_DATA = (uint8)(color & 0x000000FF);  // Write green
 228              		.loc 1 280 0
 229 0032 190A     		lsr	r1, r3, #8
 230              	.LVL5:
 281:.\Generated_Source\PSoC4/StripLights_1.c ****     color = color >> 8;
 231              		.loc 1 281 0
 232 0034 C9B2     		uxtb	r1, r1
 233              	.LVL6:
 234 0036 1170     		strb	r1, [r2]
 282:.\Generated_Source\PSoC4/StripLights_1.c ****     StripLights_1_DATA = (uint8)(color & 0x000000FF);  // Write green
 235              		.loc 1 282 0
 236 0038 1B0C     		lsr	r3, r3, #16
 237              	.LVL7:
 283:.\Generated_Source\PSoC4/StripLights_1.c ****     
 238              		.loc 1 283 0
 239 003a DBB2     		uxtb	r3, r3
 240              	.LVL8:
 241 003c 1370     		strb	r3, [r2]
 285:.\Generated_Source\PSoC4/StripLights_1.c ****  //   StripLights_1_CONTROL = StripLights_1_ENABLE | StripLights_1_FIFO_IRQ_EN; 
 242              		.loc 1 285 0
 243 003e 0123     		mov	r3, #1
 244 0040 0360     		str	r3, [r0]
 288:.\Generated_Source\PSoC4/StripLights_1.c ****     StripLights_1_refreshComplete = 0;
 245              		.loc 1 288 0
 246 0042 1922     		mov	r2, #25
 247 0044 094B     		ldr	r3, .L13+28
 248 0046 1A70     		strb	r2, [r3]
 289:.\Generated_Source\PSoC4/StripLights_1.c **** }
 249              		.loc 1 289 0
 250 0048 0022     		mov	r2, #0
 251 004a 094B     		ldr	r3, .L13+32
 252 004c 1A60     		str	r2, [r3]
 290:.\Generated_Source\PSoC4/StripLights_1.c **** 
 253              		.loc 1 290 0
 254              		@ sp needed
 255 004e 7047     		bx	lr
 256              	.L14:
 257              		.align	2
ARM GAS  C:\Users\JONSHA~1\AppData\Local\Temp\ccGUQV9X.s 			page 14


 258              	.L13:
 259 0050 00000000 		.word	.LANCHOR0
 260 0054 70000F40 		.word	1074724976
 261 0058 00000000 		.word	StripLights_1_ledArray
 262 005c 00000000 		.word	.LANCHOR1
 263 0060 00000000 		.word	StripLights_1_DimShift
 264 0064 00000000 		.word	StripLights_1_DimMask
 265 0068 42000F40 		.word	1074724930
 266 006c 71000F40 		.word	1074724977
 267 0070 00000000 		.word	StripLights_1_refreshComplete
 268              		.cfi_endproc
 269              	.LFE35:
 270              		.size	StripLights_1_Trigger, .-StripLights_1_Trigger
 271              		.section	.text.StripLights_1_Ready,"ax",%progbits
 272              		.align	2
 273              		.global	StripLights_1_Ready
 274              		.code	16
 275              		.thumb_func
 276              		.type	StripLights_1_Ready, %function
 277              	StripLights_1_Ready:
 278              	.LFB36:
 306:.\Generated_Source\PSoC4/StripLights_1.c ****     if(StripLights_1_refreshComplete )
 279              		.loc 1 306 0
 280              		.cfi_startproc
 307:.\Generated_Source\PSoC4/StripLights_1.c ****     {
 281              		.loc 1 307 0
 282 0000 044B     		ldr	r3, .L17
 283 0002 1868     		ldr	r0, [r3]
 284 0004 0028     		cmp	r0, #0
 285 0006 03D0     		beq	.L16
 309:.\Generated_Source\PSoC4/StripLights_1.c ****         return((uint32)1);
 286              		.loc 1 309 0
 287 0008 0022     		mov	r2, #0
 288 000a 034B     		ldr	r3, .L17+4
 289 000c 1A70     		strb	r2, [r3]
 310:.\Generated_Source\PSoC4/StripLights_1.c ****     }
 290              		.loc 1 310 0
 291 000e 0120     		mov	r0, #1
 292              	.L16:
 316:.\Generated_Source\PSoC4/StripLights_1.c **** 
 293              		.loc 1 316 0
 294              		@ sp needed
 295 0010 7047     		bx	lr
 296              	.L18:
 297 0012 C046     		.align	2
 298              	.L17:
 299 0014 00000000 		.word	StripLights_1_refreshComplete
 300 0018 71000F40 		.word	1074724977
 301              		.cfi_endproc
 302              	.LFE36:
 303              		.size	StripLights_1_Ready, .-StripLights_1_Ready
 304              		.section	.text.StripLights_1_Stop,"ax",%progbits
 305              		.align	2
 306              		.global	StripLights_1_Stop
 307              		.code	16
 308              		.thumb_func
 309              		.type	StripLights_1_Stop, %function
ARM GAS  C:\Users\JONSHA~1\AppData\Local\Temp\ccGUQV9X.s 			page 15


 310              	StripLights_1_Stop:
 311              	.LFB37:
 333:.\Generated_Source\PSoC4/StripLights_1.c **** 
 312              		.loc 1 333 0
 313              		.cfi_startproc
 335:.\Generated_Source\PSoC4/StripLights_1.c **** }
 314              		.loc 1 335 0
 315 0000 0022     		mov	r2, #0
 316 0002 014B     		ldr	r3, .L20
 317 0004 1A70     		strb	r2, [r3]
 336:.\Generated_Source\PSoC4/StripLights_1.c **** 
 318              		.loc 1 336 0
 319              		@ sp needed
 320 0006 7047     		bx	lr
 321              	.L21:
 322              		.align	2
 323              	.L20:
 324 0008 71000F40 		.word	1074724977
 325              		.cfi_endproc
 326              	.LFE37:
 327              		.size	StripLights_1_Stop, .-StripLights_1_Stop
 328              		.global	__aeabi_uidivmod
 329              		.section	.text.StripLights_1_ColorInc,"ax",%progbits
 330              		.align	2
 331              		.global	StripLights_1_ColorInc
 332              		.code	16
 333              		.thumb_func
 334              		.type	StripLights_1_ColorInc, %function
 335              	StripLights_1_ColorInc:
 336              	.LFB38:
 353:.\Generated_Source\PSoC4/StripLights_1.c ****     uint32 color;
 337              		.loc 1 353 0
 338              		.cfi_startproc
 339              	.LVL9:
 340 0000 10B5     		push	{r4, lr}
 341              		.cfi_def_cfa_offset 8
 342              		.cfi_offset 4, -8
 343              		.cfi_offset 14, -4
 358:.\Generated_Source\PSoC4/StripLights_1.c ****     colorIndex = colorIndex % StripLights_1_COLOR_WHEEL_SIZE;
 344              		.loc 1 358 0
 345 0002 054C     		ldr	r4, .L23
 346 0004 2369     		ldr	r3, [r4, #16]
 347 0006 9C46     		mov	ip, r3
 348 0008 6044     		add	r0, r0, ip
 349              	.LVL10:
 359:.\Generated_Source\PSoC4/StripLights_1.c **** 
 350              		.loc 1 359 0
 351 000a 1821     		mov	r1, #24
 352 000c FFF7FEFF 		bl	__aeabi_uidivmod
 353              	.LVL11:
 354 0010 2161     		str	r1, [r4, #16]
 355              	.LVL12:
 369:.\Generated_Source\PSoC4/StripLights_1.c **** /*****************************************************************************
 356              		.loc 1 369 0
 357 0012 081C     		mov	r0, r1
 358              		@ sp needed
 359 0014 10BD     		pop	{r4, pc}
ARM GAS  C:\Users\JONSHA~1\AppData\Local\Temp\ccGUQV9X.s 			page 16


 360              	.L24:
 361 0016 C046     		.align	2
 362              	.L23:
 363 0018 00000000 		.word	.LANCHOR0
 364              		.cfi_endproc
 365              	.LFE38:
 366              		.size	StripLights_1_ColorInc, .-StripLights_1_ColorInc
 367              		.section	.text.StripLights_1_MemClear,"ax",%progbits
 368              		.align	2
 369              		.global	StripLights_1_MemClear
 370              		.code	16
 371              		.thumb_func
 372              		.type	StripLights_1_MemClear, %function
 373              	StripLights_1_MemClear:
 374              	.LFB42:
 470:.\Generated_Source\PSoC4/StripLights_1.c **** 
 471:.\Generated_Source\PSoC4/StripLights_1.c **** 
 472:.\Generated_Source\PSoC4/StripLights_1.c **** /*******************************************************************************
 473:.\Generated_Source\PSoC4/StripLights_1.c **** * Function Name: StripLights_1_DisplayClear
 474:.\Generated_Source\PSoC4/StripLights_1.c **** ********************************************************************************
 475:.\Generated_Source\PSoC4/StripLights_1.c **** * Summary:
 476:.\Generated_Source\PSoC4/StripLights_1.c **** *   Clear memory with a given value and update the display.
 477:.\Generated_Source\PSoC4/StripLights_1.c **** *
 478:.\Generated_Source\PSoC4/StripLights_1.c **** * Parameters:  
 479:.\Generated_Source\PSoC4/StripLights_1.c **** *  uint32 color: Color to clear display. 
 480:.\Generated_Source\PSoC4/StripLights_1.c **** *
 481:.\Generated_Source\PSoC4/StripLights_1.c **** * Return: 
 482:.\Generated_Source\PSoC4/StripLights_1.c **** *  void
 483:.\Generated_Source\PSoC4/StripLights_1.c **** *
 484:.\Generated_Source\PSoC4/StripLights_1.c **** *******************************************************************************/
 485:.\Generated_Source\PSoC4/StripLights_1.c **** void StripLights_1_DisplayClear(uint32 color)
 486:.\Generated_Source\PSoC4/StripLights_1.c **** {   
 487:.\Generated_Source\PSoC4/StripLights_1.c ****     StripLights_1_MemClear(color);
 488:.\Generated_Source\PSoC4/StripLights_1.c ****     StripLights_1_Trigger(1);
 489:.\Generated_Source\PSoC4/StripLights_1.c **** }
 490:.\Generated_Source\PSoC4/StripLights_1.c **** 
 491:.\Generated_Source\PSoC4/StripLights_1.c **** /*******************************************************************************
 492:.\Generated_Source\PSoC4/StripLights_1.c **** * Function Name: StripLights_1_MemClear
 493:.\Generated_Source\PSoC4/StripLights_1.c **** ********************************************************************************
 494:.\Generated_Source\PSoC4/StripLights_1.c **** * Summary:
 495:.\Generated_Source\PSoC4/StripLights_1.c **** *   Clear LED memory with given color, but do not update display.
 496:.\Generated_Source\PSoC4/StripLights_1.c **** *
 497:.\Generated_Source\PSoC4/StripLights_1.c **** * Parameters:  
 498:.\Generated_Source\PSoC4/StripLights_1.c **** *  uint32 color: Color to clear display.  
 499:.\Generated_Source\PSoC4/StripLights_1.c **** *
 500:.\Generated_Source\PSoC4/StripLights_1.c **** * Return: 
 501:.\Generated_Source\PSoC4/StripLights_1.c **** *  void
 502:.\Generated_Source\PSoC4/StripLights_1.c **** *
 503:.\Generated_Source\PSoC4/StripLights_1.c **** *******************************************************************************/
 504:.\Generated_Source\PSoC4/StripLights_1.c **** void StripLights_1_MemClear(uint32 color)
 505:.\Generated_Source\PSoC4/StripLights_1.c **** {
 375              		.loc 1 505 0
 376              		.cfi_startproc
 377              	.LVL13:
 378 0000 10B5     		push	{r4, lr}
 379              		.cfi_def_cfa_offset 8
 380              		.cfi_offset 4, -8
ARM GAS  C:\Users\JONSHA~1\AppData\Local\Temp\ccGUQV9X.s 			page 17


 381              		.cfi_offset 14, -4
 382              	.LVL14:
 506:.\Generated_Source\PSoC4/StripLights_1.c ****     uint32  row, col;
 507:.\Generated_Source\PSoC4/StripLights_1.c ****     
 508:.\Generated_Source\PSoC4/StripLights_1.c ****     for(row=0; row < StripLights_1_ARRAY_ROWS; row++)
 383              		.loc 1 508 0
 384 0002 0024     		mov	r4, #0
 385 0004 0AE0     		b	.L26
 386              	.LVL15:
 387              	.L27:
 509:.\Generated_Source\PSoC4/StripLights_1.c ****     {
 510:.\Generated_Source\PSoC4/StripLights_1.c ****         for(col=0; col < StripLights_1_ARRAY_COLS; col++)
 511:.\Generated_Source\PSoC4/StripLights_1.c ****         {
 512:.\Generated_Source\PSoC4/StripLights_1.c ****             StripLights_1_ledArray[row][col] = color;
 388              		.loc 1 512 0 discriminator 3
 389 0006 F423     		mov	r3, #244
 390 0008 6343     		mul	r3, r4
 391 000a 9B18     		add	r3, r3, r2
 392 000c 0549     		ldr	r1, .L30
 393 000e 5854     		strb	r0, [r3, r1]
 510:.\Generated_Source\PSoC4/StripLights_1.c ****         {
 394              		.loc 1 510 0 discriminator 3
 395 0010 0132     		add	r2, r2, #1
 396              	.LVL16:
 397 0012 00E0     		b	.L28
 398              	.LVL17:
 399              	.L29:
 400 0014 0022     		mov	r2, #0
 401              	.L28:
 402              	.LVL18:
 510:.\Generated_Source\PSoC4/StripLights_1.c ****         {
 403              		.loc 1 510 0 is_stmt 0 discriminator 1
 404 0016 F32A     		cmp	r2, #243
 405 0018 F5D9     		bls	.L27
 508:.\Generated_Source\PSoC4/StripLights_1.c ****     {
 406              		.loc 1 508 0 is_stmt 1 discriminator 2
 407 001a 0134     		add	r4, r4, #1
 408              	.LVL19:
 409              	.L26:
 508:.\Generated_Source\PSoC4/StripLights_1.c ****     {
 410              		.loc 1 508 0 is_stmt 0 discriminator 1
 411 001c 002C     		cmp	r4, #0
 412 001e F9D0     		beq	.L29
 513:.\Generated_Source\PSoC4/StripLights_1.c ****             #if(StripLights_1_MEMORY_TYPE == StripLights_1_MEMORY_RGB)
 514:.\Generated_Source\PSoC4/StripLights_1.c ****                 StripLights_1_ledArray[row][col] = color;
 515:.\Generated_Source\PSoC4/StripLights_1.c ****             #else  /* Else use lookup table */
 516:.\Generated_Source\PSoC4/StripLights_1.c ****                  StripLights_1_ledArray[row][col] = (uint8)color;
 517:.\Generated_Source\PSoC4/StripLights_1.c ****             #endif
 518:.\Generated_Source\PSoC4/StripLights_1.c ****         }
 519:.\Generated_Source\PSoC4/StripLights_1.c ****     }
 520:.\Generated_Source\PSoC4/StripLights_1.c **** }
 413              		.loc 1 520 0 is_stmt 1
 414              		@ sp needed
 415              	.LVL20:
 416 0020 10BD     		pop	{r4, pc}
 417              	.L31:
 418 0022 C046     		.align	2
ARM GAS  C:\Users\JONSHA~1\AppData\Local\Temp\ccGUQV9X.s 			page 18


 419              	.L30:
 420 0024 00000000 		.word	StripLights_1_ledArray
 421              		.cfi_endproc
 422              	.LFE42:
 423              		.size	StripLights_1_MemClear, .-StripLights_1_MemClear
 424              		.section	.text.StripLights_1_DisplayClear,"ax",%progbits
 425              		.align	2
 426              		.global	StripLights_1_DisplayClear
 427              		.code	16
 428              		.thumb_func
 429              		.type	StripLights_1_DisplayClear, %function
 430              	StripLights_1_DisplayClear:
 431              	.LFB41:
 486:.\Generated_Source\PSoC4/StripLights_1.c ****     StripLights_1_MemClear(color);
 432              		.loc 1 486 0
 433              		.cfi_startproc
 434              	.LVL21:
 435 0000 08B5     		push	{r3, lr}
 436              		.cfi_def_cfa_offset 8
 437              		.cfi_offset 3, -8
 438              		.cfi_offset 14, -4
 487:.\Generated_Source\PSoC4/StripLights_1.c ****     StripLights_1_Trigger(1);
 439              		.loc 1 487 0
 440 0002 FFF7FEFF 		bl	StripLights_1_MemClear
 441              	.LVL22:
 488:.\Generated_Source\PSoC4/StripLights_1.c **** }
 442              		.loc 1 488 0
 443 0006 0120     		mov	r0, #1
 444 0008 FFF7FEFF 		bl	StripLights_1_Trigger
 445              	.LVL23:
 489:.\Generated_Source\PSoC4/StripLights_1.c **** 
 446              		.loc 1 489 0
 447              		@ sp needed
 448 000c 08BD     		pop	{r3, pc}
 449              		.cfi_endproc
 450              	.LFE41:
 451              		.size	StripLights_1_DisplayClear, .-StripLights_1_DisplayClear
 452 000e C046     		.section	.text.StripLights_1_WriteColor,"ax",%progbits
 453              		.align	2
 454              		.global	StripLights_1_WriteColor
 455              		.code	16
 456              		.thumb_func
 457              		.type	StripLights_1_WriteColor, %function
 458              	StripLights_1_WriteColor:
 459              	.LFB43:
 521:.\Generated_Source\PSoC4/StripLights_1.c **** 
 522:.\Generated_Source\PSoC4/StripLights_1.c **** 
 523:.\Generated_Source\PSoC4/StripLights_1.c **** 
 524:.\Generated_Source\PSoC4/StripLights_1.c **** /*******************************************************************************
 525:.\Generated_Source\PSoC4/StripLights_1.c **** * Function Name: StripLights_1_WriteColor
 526:.\Generated_Source\PSoC4/StripLights_1.c **** ********************************************************************************
 527:.\Generated_Source\PSoC4/StripLights_1.c **** * Summary:
 528:.\Generated_Source\PSoC4/StripLights_1.c **** *   Write given color directly to output register.
 529:.\Generated_Source\PSoC4/StripLights_1.c **** *
 530:.\Generated_Source\PSoC4/StripLights_1.c **** * Parameters:  
 531:.\Generated_Source\PSoC4/StripLights_1.c **** *  uint32 color: Color to write to display. 
 532:.\Generated_Source\PSoC4/StripLights_1.c **** *
ARM GAS  C:\Users\JONSHA~1\AppData\Local\Temp\ccGUQV9X.s 			page 19


 533:.\Generated_Source\PSoC4/StripLights_1.c **** * Return: 
 534:.\Generated_Source\PSoC4/StripLights_1.c **** *  void
 535:.\Generated_Source\PSoC4/StripLights_1.c **** *
 536:.\Generated_Source\PSoC4/StripLights_1.c **** *******************************************************************************/
 537:.\Generated_Source\PSoC4/StripLights_1.c **** void StripLights_1_WriteColor(uint32 color)
 538:.\Generated_Source\PSoC4/StripLights_1.c **** {
 460              		.loc 1 538 0
 461              		.cfi_startproc
 462              	.LVL24:
 463              	.L34:
 539:.\Generated_Source\PSoC4/StripLights_1.c ****     while( (StripLights_1_STATUS & StripLights_1_FIFO_EMPTY) == 0); 
 464              		.loc 1 539 0 discriminator 1
 465 0000 064B     		ldr	r3, .L35
 466 0002 1B78     		ldrb	r3, [r3]
 467 0004 DB07     		lsl	r3, r3, #31
 468 0006 FBD5     		bpl	.L34
 540:.\Generated_Source\PSoC4/StripLights_1.c **** 
 541:.\Generated_Source\PSoC4/StripLights_1.c ****     StripLights_1_DATA = (uint8)(color & 0x000000FF);  // Write Green
 469              		.loc 1 541 0
 470 0008 C2B2     		uxtb	r2, r0
 471 000a 054B     		ldr	r3, .L35+4
 472 000c 1A70     		strb	r2, [r3]
 542:.\Generated_Source\PSoC4/StripLights_1.c ****     color = color >> 8;
 473              		.loc 1 542 0
 474 000e 020A     		lsr	r2, r0, #8
 475              	.LVL25:
 543:.\Generated_Source\PSoC4/StripLights_1.c ****     StripLights_1_DATA = (uint8)(color & 0x000000FF);  // Write Red
 476              		.loc 1 543 0
 477 0010 D2B2     		uxtb	r2, r2
 478              	.LVL26:
 479 0012 1A70     		strb	r2, [r3]
 544:.\Generated_Source\PSoC4/StripLights_1.c ****     color = color >> 8;
 480              		.loc 1 544 0
 481 0014 000C     		lsr	r0, r0, #16
 482              	.LVL27:
 545:.\Generated_Source\PSoC4/StripLights_1.c ****     StripLights_1_DATA = (uint8)(color & 0x000000FF);  // Write Blue
 483              		.loc 1 545 0
 484 0016 C0B2     		uxtb	r0, r0
 485              	.LVL28:
 486 0018 1870     		strb	r0, [r3]
 546:.\Generated_Source\PSoC4/StripLights_1.c **** }
 487              		.loc 1 546 0
 488              		@ sp needed
 489 001a 7047     		bx	lr
 490              	.L36:
 491              		.align	2
 492              	.L35:
 493 001c 62000F40 		.word	1074724962
 494 0020 42000F40 		.word	1074724930
 495              		.cfi_endproc
 496              	.LFE43:
 497              		.size	StripLights_1_WriteColor, .-StripLights_1_WriteColor
 498              		.section	.text.StripLights_1_Pixel,"ax",%progbits
 499              		.align	2
 500              		.global	StripLights_1_Pixel
 501              		.code	16
 502              		.thumb_func
ARM GAS  C:\Users\JONSHA~1\AppData\Local\Temp\ccGUQV9X.s 			page 20


 503              		.type	StripLights_1_Pixel, %function
 504              	StripLights_1_Pixel:
 505              	.LFB44:
 547:.\Generated_Source\PSoC4/StripLights_1.c **** 
 548:.\Generated_Source\PSoC4/StripLights_1.c **** 
 549:.\Generated_Source\PSoC4/StripLights_1.c **** /*******************************************************************************
 550:.\Generated_Source\PSoC4/StripLights_1.c **** * Function Name: StripLights_1_Pixel
 551:.\Generated_Source\PSoC4/StripLights_1.c **** ********************************************************************************
 552:.\Generated_Source\PSoC4/StripLights_1.c **** *
 553:.\Generated_Source\PSoC4/StripLights_1.c **** * Summary:
 554:.\Generated_Source\PSoC4/StripLights_1.c **** *  Draw Pixel  
 555:.\Generated_Source\PSoC4/StripLights_1.c **** *
 556:.\Generated_Source\PSoC4/StripLights_1.c **** * Parameters:  
 557:.\Generated_Source\PSoC4/StripLights_1.c **** *  x,y:    Location to draw the pixel
 558:.\Generated_Source\PSoC4/StripLights_1.c **** *  color:  Color of the pixel
 559:.\Generated_Source\PSoC4/StripLights_1.c **** *
 560:.\Generated_Source\PSoC4/StripLights_1.c **** * Return: 
 561:.\Generated_Source\PSoC4/StripLights_1.c **** *  None 
 562:.\Generated_Source\PSoC4/StripLights_1.c **** *******************************************************************************/
 563:.\Generated_Source\PSoC4/StripLights_1.c **** void StripLights_1_Pixel(int32 x, int32 y, uint32 color)
 564:.\Generated_Source\PSoC4/StripLights_1.c **** {
 506              		.loc 1 564 0
 507              		.cfi_startproc
 508              	.LVL29:
 565:.\Generated_Source\PSoC4/StripLights_1.c **** 
 566:.\Generated_Source\PSoC4/StripLights_1.c **** 	if((x >= StripLights_1_MIN_X) && (y >= StripLights_1_MIN_Y) && (x <= StripLights_1_MAX_X) && (y <=
 509              		.loc 1 566 0
 510 0000 0028     		cmp	r0, #0
 511 0002 0ADB     		blt	.L37
 512              		.loc 1 566 0 is_stmt 0 discriminator 1
 513 0004 0029     		cmp	r1, #0
 514 0006 08DB     		blt	.L37
 515              		.loc 1 566 0 discriminator 2
 516 0008 F328     		cmp	r0, #243
 517 000a 06DC     		bgt	.L37
 518              		.loc 1 566 0 discriminator 3
 519 000c 0029     		cmp	r1, #0
 520 000e 04DC     		bgt	.L37
 567:.\Generated_Source\PSoC4/StripLights_1.c ****     {
 568:.\Generated_Source\PSoC4/StripLights_1.c **** 
 569:.\Generated_Source\PSoC4/StripLights_1.c ****     #if(StripLights_1_MEMORY_TYPE == StripLights_1_MEMORY_RGB)
 570:.\Generated_Source\PSoC4/StripLights_1.c ****        StripLights_1_ledArray[y][x] = color;
 571:.\Generated_Source\PSoC4/StripLights_1.c ****     #else  /* Else use lookup table */
 572:.\Generated_Source\PSoC4/StripLights_1.c ****        StripLights_1_ledArray[y][x] = (uint8)color;
 521              		.loc 1 572 0 is_stmt 1
 522 0010 F423     		mov	r3, #244
 523 0012 5943     		mul	r1, r3
 524              	.LVL30:
 525 0014 0818     		add	r0, r1, r0
 526              	.LVL31:
 527 0016 014B     		ldr	r3, .L39
 528 0018 1A54     		strb	r2, [r3, r0]
 529              	.L37:
 573:.\Generated_Source\PSoC4/StripLights_1.c ****     #endif
 574:.\Generated_Source\PSoC4/StripLights_1.c ****     }
 575:.\Generated_Source\PSoC4/StripLights_1.c ****   
 576:.\Generated_Source\PSoC4/StripLights_1.c **** }
ARM GAS  C:\Users\JONSHA~1\AppData\Local\Temp\ccGUQV9X.s 			page 21


 530              		.loc 1 576 0
 531              		@ sp needed
 532 001a 7047     		bx	lr
 533              	.L40:
 534              		.align	2
 535              	.L39:
 536 001c 00000000 		.word	StripLights_1_ledArray
 537              		.cfi_endproc
 538              	.LFE44:
 539              		.size	StripLights_1_Pixel, .-StripLights_1_Pixel
 540              		.section	.text.StripLights_1_GetPixel,"ax",%progbits
 541              		.align	2
 542              		.global	StripLights_1_GetPixel
 543              		.code	16
 544              		.thumb_func
 545              		.type	StripLights_1_GetPixel, %function
 546              	StripLights_1_GetPixel:
 547              	.LFB45:
 577:.\Generated_Source\PSoC4/StripLights_1.c **** 
 578:.\Generated_Source\PSoC4/StripLights_1.c **** /*******************************************************************************
 579:.\Generated_Source\PSoC4/StripLights_1.c **** * Function Name: StripLights_1_GetPixel
 580:.\Generated_Source\PSoC4/StripLights_1.c **** ********************************************************************************
 581:.\Generated_Source\PSoC4/StripLights_1.c **** *
 582:.\Generated_Source\PSoC4/StripLights_1.c **** * Summary:
 583:.\Generated_Source\PSoC4/StripLights_1.c **** *  Get Pixel Color  
 584:.\Generated_Source\PSoC4/StripLights_1.c **** *
 585:.\Generated_Source\PSoC4/StripLights_1.c **** * Parameters:  
 586:.\Generated_Source\PSoC4/StripLights_1.c **** *  x,y:    Location to get pixel color
 587:.\Generated_Source\PSoC4/StripLights_1.c **** *
 588:.\Generated_Source\PSoC4/StripLights_1.c **** * Return: 
 589:.\Generated_Source\PSoC4/StripLights_1.c **** *  None 
 590:.\Generated_Source\PSoC4/StripLights_1.c **** *******************************************************************************/
 591:.\Generated_Source\PSoC4/StripLights_1.c **** uint32 StripLights_1_GetPixel(int32 x, int32 y)
 592:.\Generated_Source\PSoC4/StripLights_1.c **** {
 548              		.loc 1 592 0
 549              		.cfi_startproc
 550              	.LVL32:
 593:.\Generated_Source\PSoC4/StripLights_1.c ****     uint32 color;
 594:.\Generated_Source\PSoC4/StripLights_1.c ****     if((x>=0) && (y>=0) && (x < StripLights_1_ARRAY_COLS) && (y < StripLights_1_ARRAY_ROWS))
 551              		.loc 1 594 0
 552 0000 0028     		cmp	r0, #0
 553 0002 0ADB     		blt	.L42
 554              		.loc 1 594 0 is_stmt 0 discriminator 1
 555 0004 0029     		cmp	r1, #0
 556 0006 08DB     		blt	.L42
 557              		.loc 1 594 0 discriminator 2
 558 0008 F328     		cmp	r0, #243
 559 000a 06DC     		bgt	.L42
 560              		.loc 1 594 0 discriminator 3
 561 000c 0029     		cmp	r1, #0
 562 000e 04DC     		bgt	.L42
 595:.\Generated_Source\PSoC4/StripLights_1.c ****     {
 596:.\Generated_Source\PSoC4/StripLights_1.c ****     #if(StripLights_1_MEMORY_TYPE == StripLights_1_MEMORY_RGB)
 597:.\Generated_Source\PSoC4/StripLights_1.c ****        color = StripLights_1_ledArray[y][x];
 598:.\Generated_Source\PSoC4/StripLights_1.c ****     #else  /* Else use lookup table */
 599:.\Generated_Source\PSoC4/StripLights_1.c ****        color = (uint32)StripLights_1_ledArray[y][x];
 563              		.loc 1 599 0 is_stmt 1
ARM GAS  C:\Users\JONSHA~1\AppData\Local\Temp\ccGUQV9X.s 			page 22


 564 0010 F423     		mov	r3, #244
 565 0012 5943     		mul	r1, r3
 566              	.LVL33:
 567 0014 0818     		add	r0, r1, r0
 568              	.LVL34:
 569 0016 024B     		ldr	r3, .L43
 570 0018 C35C     		ldrb	r3, [r0, r3]
 571              	.LVL35:
 572              	.L42:
 600:.\Generated_Source\PSoC4/StripLights_1.c ****     #endif
 601:.\Generated_Source\PSoC4/StripLights_1.c ****     }
 602:.\Generated_Source\PSoC4/StripLights_1.c ****     return(color);
 603:.\Generated_Source\PSoC4/StripLights_1.c **** }
 573              		.loc 1 603 0
 574 001a 181C     		mov	r0, r3
 575              		@ sp needed
 576 001c 7047     		bx	lr
 577              	.L44:
 578 001e C046     		.align	2
 579              	.L43:
 580 0020 00000000 		.word	StripLights_1_ledArray
 581              		.cfi_endproc
 582              	.LFE45:
 583              		.size	StripLights_1_GetPixel, .-StripLights_1_GetPixel
 584              		.section	.text.StripLights_1_DrawCircle,"ax",%progbits
 585              		.align	2
 586              		.global	StripLights_1_DrawCircle
 587              		.code	16
 588              		.thumb_func
 589              		.type	StripLights_1_DrawCircle, %function
 590              	StripLights_1_DrawCircle:
 591              	.LFB46:
 604:.\Generated_Source\PSoC4/StripLights_1.c **** 
 605:.\Generated_Source\PSoC4/StripLights_1.c **** /*******************************************************************************
 606:.\Generated_Source\PSoC4/StripLights_1.c **** * Function Name: StripLights_1_DrawCircle
 607:.\Generated_Source\PSoC4/StripLights_1.c **** ********************************************************************************
 608:.\Generated_Source\PSoC4/StripLights_1.c **** *
 609:.\Generated_Source\PSoC4/StripLights_1.c **** * Summary:
 610:.\Generated_Source\PSoC4/StripLights_1.c **** *  Draw a circle on the display given a start point and radius.  
 611:.\Generated_Source\PSoC4/StripLights_1.c **** *
 612:.\Generated_Source\PSoC4/StripLights_1.c **** *  This code uses Bresenham's Circle Algorithm. 
 613:.\Generated_Source\PSoC4/StripLights_1.c **** *
 614:.\Generated_Source\PSoC4/StripLights_1.c **** * Parameters:  
 615:.\Generated_Source\PSoC4/StripLights_1.c **** *  x0, y0: Center of circle
 616:.\Generated_Source\PSoC4/StripLights_1.c **** *  radius: Radius of circle
 617:.\Generated_Source\PSoC4/StripLights_1.c **** *  color:  Color of circle
 618:.\Generated_Source\PSoC4/StripLights_1.c **** *
 619:.\Generated_Source\PSoC4/StripLights_1.c **** * Return: 
 620:.\Generated_Source\PSoC4/StripLights_1.c **** *  None 
 621:.\Generated_Source\PSoC4/StripLights_1.c **** *  
 622:.\Generated_Source\PSoC4/StripLights_1.c **** *******************************************************************************/
 623:.\Generated_Source\PSoC4/StripLights_1.c **** void StripLights_1_DrawCircle (int32 x0, int32 y0, int32 radius, uint32 color)
 624:.\Generated_Source\PSoC4/StripLights_1.c **** {
 592              		.loc 1 624 0
 593              		.cfi_startproc
 594              	.LVL36:
 595 0000 F0B5     		push	{r4, r5, r6, r7, lr}
ARM GAS  C:\Users\JONSHA~1\AppData\Local\Temp\ccGUQV9X.s 			page 23


 596              		.cfi_def_cfa_offset 20
 597              		.cfi_offset 4, -20
 598              		.cfi_offset 5, -16
 599              		.cfi_offset 6, -12
 600              		.cfi_offset 7, -8
 601              		.cfi_offset 14, -4
 602 0002 5F46     		mov	r7, fp
 603 0004 5646     		mov	r6, r10
 604 0006 4D46     		mov	r5, r9
 605 0008 4446     		mov	r4, r8
 606 000a F0B4     		push	{r4, r5, r6, r7}
 607              		.cfi_def_cfa_offset 36
 608              		.cfi_offset 8, -36
 609              		.cfi_offset 9, -32
 610              		.cfi_offset 10, -28
 611              		.cfi_offset 11, -24
 612 000c 85B0     		sub	sp, sp, #20
 613              		.cfi_def_cfa_offset 56
 614 000e 8146     		mov	r9, r0
 615 0010 8846     		mov	r8, r1
 616 0012 141C     		mov	r4, r2
 617 0014 1D1C     		mov	r5, r3
 618 0016 0193     		str	r3, [sp, #4]
 625:.\Generated_Source\PSoC4/StripLights_1.c **** 	int32 f = 1 - radius;
 619              		.loc 1 625 0
 620 0018 0126     		mov	r6, #1
 621 001a B61A     		sub	r6, r6, r2
 622              	.LVL37:
 626:.\Generated_Source\PSoC4/StripLights_1.c **** 	int32 ddF_x = 0;
 627:.\Generated_Source\PSoC4/StripLights_1.c **** 	int32 ddF_y = -2 * radius;
 623              		.loc 1 627 0
 624 001c 5300     		lsl	r3, r2, #1
 625              	.LVL38:
 626 001e 5B42     		neg	r3, r3
 627 0020 9A46     		mov	r10, r3
 628              	.LVL39:
 628:.\Generated_Source\PSoC4/StripLights_1.c **** 	int32 x = 0;
 629:.\Generated_Source\PSoC4/StripLights_1.c **** 	int32 y = radius;
 630:.\Generated_Source\PSoC4/StripLights_1.c **** 
 631:.\Generated_Source\PSoC4/StripLights_1.c **** 	StripLights_1_Pixel(x0, y0 + radius, color);
 629              		.loc 1 631 0
 630 0022 8918     		add	r1, r1, r2
 631              	.LVL40:
 632 0024 2A1C     		mov	r2, r5
 633              	.LVL41:
 634 0026 FFF7FEFF 		bl	StripLights_1_Pixel
 635              	.LVL42:
 632:.\Generated_Source\PSoC4/StripLights_1.c **** 	StripLights_1_Pixel(x0, y0 - radius, color);
 636              		.loc 1 632 0
 637 002a 4346     		mov	r3, r8
 638 002c 191B     		sub	r1, r3, r4
 639 002e 4846     		mov	r0, r9
 640 0030 2A1C     		mov	r2, r5
 641 0032 FFF7FEFF 		bl	StripLights_1_Pixel
 642              	.LVL43:
 633:.\Generated_Source\PSoC4/StripLights_1.c **** 	StripLights_1_Pixel( x0 + radius, y0, color);
 643              		.loc 1 633 0
ARM GAS  C:\Users\JONSHA~1\AppData\Local\Temp\ccGUQV9X.s 			page 24


 644 0036 4B46     		mov	r3, r9
 645 0038 1819     		add	r0, r3, r4
 646 003a 4146     		mov	r1, r8
 647 003c 2A1C     		mov	r2, r5
 648 003e FFF7FEFF 		bl	StripLights_1_Pixel
 649              	.LVL44:
 634:.\Generated_Source\PSoC4/StripLights_1.c **** 	StripLights_1_Pixel( x0 - radius, y0, color);
 650              		.loc 1 634 0
 651 0042 4B46     		mov	r3, r9
 652 0044 181B     		sub	r0, r3, r4
 653 0046 4146     		mov	r1, r8
 654 0048 2A1C     		mov	r2, r5
 655 004a FFF7FEFF 		bl	StripLights_1_Pixel
 656              	.LVL45:
 628:.\Generated_Source\PSoC4/StripLights_1.c **** 	int32 y = radius;
 657              		.loc 1 628 0
 658 004e 0025     		mov	r5, #0
 659              	.LVL46:
 626:.\Generated_Source\PSoC4/StripLights_1.c **** 	int32 ddF_y = -2 * radius;
 660              		.loc 1 626 0
 661 0050 0023     		mov	r3, #0
 635:.\Generated_Source\PSoC4/StripLights_1.c **** 
 636:.\Generated_Source\PSoC4/StripLights_1.c **** 	while(x < y)
 662              		.loc 1 636 0
 663 0052 49E0     		b	.L46
 664              	.LVL47:
 665              	.L48:
 637:.\Generated_Source\PSoC4/StripLights_1.c **** 	{
 638:.\Generated_Source\PSoC4/StripLights_1.c **** 		if(f >= 0)
 666              		.loc 1 638 0
 667 0054 002E     		cmp	r6, #0
 668 0056 04DB     		blt	.L47
 639:.\Generated_Source\PSoC4/StripLights_1.c **** 		{
 640:.\Generated_Source\PSoC4/StripLights_1.c **** 			y--;
 669              		.loc 1 640 0
 670 0058 013C     		sub	r4, r4, #1
 671              	.LVL48:
 641:.\Generated_Source\PSoC4/StripLights_1.c **** 			ddF_y += 2;
 672              		.loc 1 641 0
 673 005a 0222     		mov	r2, #2
 674 005c 9446     		mov	ip, r2
 675 005e E244     		add	r10, r10, ip
 676              	.LVL49:
 642:.\Generated_Source\PSoC4/StripLights_1.c **** 			f += ddF_y;
 677              		.loc 1 642 0
 678 0060 5644     		add	r6, r6, r10
 679              	.LVL50:
 680              	.L47:
 643:.\Generated_Source\PSoC4/StripLights_1.c **** 		}
 644:.\Generated_Source\PSoC4/StripLights_1.c **** 		x++;
 681              		.loc 1 644 0
 682 0062 0135     		add	r5, r5, #1
 683              	.LVL51:
 645:.\Generated_Source\PSoC4/StripLights_1.c **** 		ddF_x += 2;
 684              		.loc 1 645 0
 685 0064 9A1C     		add	r2, r3, #2
 686 0066 9346     		mov	fp, r2
ARM GAS  C:\Users\JONSHA~1\AppData\Local\Temp\ccGUQV9X.s 			page 25


 687              	.LVL52:
 646:.\Generated_Source\PSoC4/StripLights_1.c **** 		f += ddF_x + 1;
 688              		.loc 1 646 0
 689 0068 0333     		add	r3, r3, #3
 690 006a F618     		add	r6, r6, r3
 691              	.LVL53:
 647:.\Generated_Source\PSoC4/StripLights_1.c **** 
 648:.\Generated_Source\PSoC4/StripLights_1.c **** 		StripLights_1_Pixel(x0 + x, y0 + y, color);
 692              		.loc 1 648 0
 693 006c 4B46     		mov	r3, r9
 694 006e 5F19     		add	r7, r3, r5
 695 0070 4346     		mov	r3, r8
 696 0072 1B19     		add	r3, r3, r4
 697 0074 381C     		mov	r0, r7
 698 0076 0293     		str	r3, [sp, #8]
 699 0078 191C     		mov	r1, r3
 700 007a 019A     		ldr	r2, [sp, #4]
 701              	.LVL54:
 702 007c FFF7FEFF 		bl	StripLights_1_Pixel
 703              	.LVL55:
 649:.\Generated_Source\PSoC4/StripLights_1.c **** 		StripLights_1_Pixel(x0 - x, y0 + y, color);
 704              		.loc 1 649 0
 705 0080 4A46     		mov	r2, r9
 706 0082 531B     		sub	r3, r2, r5
 707 0084 0393     		str	r3, [sp, #12]
 708 0086 181C     		mov	r0, r3
 709 0088 0299     		ldr	r1, [sp, #8]
 710 008a 019A     		ldr	r2, [sp, #4]
 711 008c FFF7FEFF 		bl	StripLights_1_Pixel
 712              	.LVL56:
 650:.\Generated_Source\PSoC4/StripLights_1.c **** 		StripLights_1_Pixel( x0 + x, y0 - y, color);
 713              		.loc 1 650 0
 714 0090 4246     		mov	r2, r8
 715 0092 131B     		sub	r3, r2, r4
 716 0094 381C     		mov	r0, r7
 717 0096 1F1C     		mov	r7, r3
 718 0098 191C     		mov	r1, r3
 719 009a 019A     		ldr	r2, [sp, #4]
 720 009c FFF7FEFF 		bl	StripLights_1_Pixel
 721              	.LVL57:
 651:.\Generated_Source\PSoC4/StripLights_1.c **** 		StripLights_1_Pixel( x0 - x, y0 - y, color);
 722              		.loc 1 651 0
 723 00a0 0398     		ldr	r0, [sp, #12]
 724 00a2 391C     		mov	r1, r7
 725 00a4 019A     		ldr	r2, [sp, #4]
 726 00a6 FFF7FEFF 		bl	StripLights_1_Pixel
 727              	.LVL58:
 652:.\Generated_Source\PSoC4/StripLights_1.c **** 		StripLights_1_Pixel( x0 + y, y0 + x, color);
 728              		.loc 1 652 0
 729 00aa 4B46     		mov	r3, r9
 730 00ac 1B19     		add	r3, r3, r4
 731 00ae 4246     		mov	r2, r8
 732 00b0 5719     		add	r7, r2, r5
 733 00b2 0293     		str	r3, [sp, #8]
 734 00b4 181C     		mov	r0, r3
 735 00b6 391C     		mov	r1, r7
 736 00b8 019A     		ldr	r2, [sp, #4]
ARM GAS  C:\Users\JONSHA~1\AppData\Local\Temp\ccGUQV9X.s 			page 26


 737 00ba FFF7FEFF 		bl	StripLights_1_Pixel
 738              	.LVL59:
 653:.\Generated_Source\PSoC4/StripLights_1.c **** 		StripLights_1_Pixel( x0 - y, y0 + x, color);
 739              		.loc 1 653 0
 740 00be 4A46     		mov	r2, r9
 741 00c0 131B     		sub	r3, r2, r4
 742 00c2 0393     		str	r3, [sp, #12]
 743 00c4 181C     		mov	r0, r3
 744 00c6 391C     		mov	r1, r7
 745 00c8 019A     		ldr	r2, [sp, #4]
 746 00ca FFF7FEFF 		bl	StripLights_1_Pixel
 747              	.LVL60:
 654:.\Generated_Source\PSoC4/StripLights_1.c **** 		StripLights_1_Pixel( x0 + y, y0 - x, color);
 748              		.loc 1 654 0
 749 00ce 4246     		mov	r2, r8
 750 00d0 571B     		sub	r7, r2, r5
 751 00d2 0298     		ldr	r0, [sp, #8]
 752 00d4 391C     		mov	r1, r7
 753 00d6 019A     		ldr	r2, [sp, #4]
 754 00d8 FFF7FEFF 		bl	StripLights_1_Pixel
 755              	.LVL61:
 655:.\Generated_Source\PSoC4/StripLights_1.c **** 		StripLights_1_Pixel( x0 - y, y0 - x, color);
 756              		.loc 1 655 0
 757 00dc 0398     		ldr	r0, [sp, #12]
 758 00de 391C     		mov	r1, r7
 759 00e0 019A     		ldr	r2, [sp, #4]
 760 00e2 FFF7FEFF 		bl	StripLights_1_Pixel
 761              	.LVL62:
 645:.\Generated_Source\PSoC4/StripLights_1.c **** 		f += ddF_x + 1;
 762              		.loc 1 645 0
 763 00e6 5B46     		mov	r3, fp
 764              	.LVL63:
 765              	.L46:
 636:.\Generated_Source\PSoC4/StripLights_1.c **** 	{
 766              		.loc 1 636 0
 767 00e8 A542     		cmp	r5, r4
 768 00ea B3DB     		blt	.L48
 656:.\Generated_Source\PSoC4/StripLights_1.c **** 	}
 657:.\Generated_Source\PSoC4/StripLights_1.c **** }
 769              		.loc 1 657 0
 770 00ec 05B0     		add	sp, sp, #20
 771              		@ sp needed
 772              	.LVL64:
 773              	.LVL65:
 774              	.LVL66:
 775              	.LVL67:
 776              	.LVL68:
 777              	.LVL69:
 778 00ee 3CBC     		pop	{r2, r3, r4, r5}
 779 00f0 9046     		mov	r8, r2
 780 00f2 9946     		mov	r9, r3
 781 00f4 A246     		mov	r10, r4
 782 00f6 AB46     		mov	fp, r5
 783 00f8 F0BD     		pop	{r4, r5, r6, r7, pc}
 784              		.cfi_endproc
 785              	.LFE46:
 786              		.size	StripLights_1_DrawCircle, .-StripLights_1_DrawCircle
ARM GAS  C:\Users\JONSHA~1\AppData\Local\Temp\ccGUQV9X.s 			page 27


 787 00fa C046     		.section	.text.StripLights_1_DrawLine,"ax",%progbits
 788              		.align	2
 789              		.global	StripLights_1_DrawLine
 790              		.code	16
 791              		.thumb_func
 792              		.type	StripLights_1_DrawLine, %function
 793              	StripLights_1_DrawLine:
 794              	.LFB47:
 658:.\Generated_Source\PSoC4/StripLights_1.c **** 
 659:.\Generated_Source\PSoC4/StripLights_1.c **** 
 660:.\Generated_Source\PSoC4/StripLights_1.c **** /*******************************************************************************
 661:.\Generated_Source\PSoC4/StripLights_1.c **** * Function Name: StripLights_1_DrawLine
 662:.\Generated_Source\PSoC4/StripLights_1.c **** ********************************************************************************
 663:.\Generated_Source\PSoC4/StripLights_1.c **** *
 664:.\Generated_Source\PSoC4/StripLights_1.c **** * Summary:
 665:.\Generated_Source\PSoC4/StripLights_1.c **** *  Draw a line on the display.  
 666:.\Generated_Source\PSoC4/StripLights_1.c **** *
 667:.\Generated_Source\PSoC4/StripLights_1.c **** * Parameters:  
 668:.\Generated_Source\PSoC4/StripLights_1.c **** *  x0, y0:  The beginning endpoint
 669:.\Generated_Source\PSoC4/StripLights_1.c **** *  x1, y1:  The end endpoint.
 670:.\Generated_Source\PSoC4/StripLights_1.c **** *  color:   Color of the line.
 671:.\Generated_Source\PSoC4/StripLights_1.c **** *
 672:.\Generated_Source\PSoC4/StripLights_1.c **** * Return: 
 673:.\Generated_Source\PSoC4/StripLights_1.c **** *  None 
 674:.\Generated_Source\PSoC4/StripLights_1.c **** *  
 675:.\Generated_Source\PSoC4/StripLights_1.c **** *******************************************************************************/
 676:.\Generated_Source\PSoC4/StripLights_1.c **** void StripLights_1_DrawLine(int32 x0, int32 y0, int32 x1, int32 y1, uint32 color)
 677:.\Generated_Source\PSoC4/StripLights_1.c **** {
 795              		.loc 1 677 0
 796              		.cfi_startproc
 797              	.LVL70:
 798 0000 F0B5     		push	{r4, r5, r6, r7, lr}
 799              		.cfi_def_cfa_offset 20
 800              		.cfi_offset 4, -20
 801              		.cfi_offset 5, -16
 802              		.cfi_offset 6, -12
 803              		.cfi_offset 7, -8
 804              		.cfi_offset 14, -4
 805 0002 5F46     		mov	r7, fp
 806 0004 5646     		mov	r6, r10
 807 0006 4D46     		mov	r5, r9
 808 0008 4446     		mov	r4, r8
 809 000a F0B4     		push	{r4, r5, r6, r7}
 810              		.cfi_def_cfa_offset 36
 811              		.cfi_offset 8, -36
 812              		.cfi_offset 9, -32
 813              		.cfi_offset 10, -28
 814              		.cfi_offset 11, -24
 815 000c 83B0     		sub	sp, sp, #12
 816              		.cfi_def_cfa_offset 48
 817 000e 041C     		mov	r4, r0
 818 0010 0D1C     		mov	r5, r1
 819 0012 0192     		str	r2, [sp, #4]
 820 0014 9B46     		mov	fp, r3
 678:.\Generated_Source\PSoC4/StripLights_1.c **** 	int32 dy = y1 - y0; /* Difference between y0 and y1 */
 821              		.loc 1 678 0
 822 0016 5B1A     		sub	r3, r3, r1
ARM GAS  C:\Users\JONSHA~1\AppData\Local\Temp\ccGUQV9X.s 			page 28


 823              	.LVL71:
 679:.\Generated_Source\PSoC4/StripLights_1.c **** 	int32 dx = x1 - x0; /* Difference between x0 and x1 */
 824              		.loc 1 679 0
 825 0018 171A     		sub	r7, r2, r0
 826              	.LVL72:
 680:.\Generated_Source\PSoC4/StripLights_1.c **** 	int32 stepx, stepy;
 681:.\Generated_Source\PSoC4/StripLights_1.c **** 
 682:.\Generated_Source\PSoC4/StripLights_1.c **** 	if (dy < 0)
 827              		.loc 1 682 0
 828 001a 002B     		cmp	r3, #0
 829 001c 04DA     		bge	.L60
 683:.\Generated_Source\PSoC4/StripLights_1.c **** 	{
 684:.\Generated_Source\PSoC4/StripLights_1.c **** 		dy = -dy;
 830              		.loc 1 684 0
 831 001e 5B42     		neg	r3, r3
 832              	.LVL73:
 685:.\Generated_Source\PSoC4/StripLights_1.c **** 		stepy = -1;
 833              		.loc 1 685 0
 834 0020 0122     		mov	r2, #1
 835              	.LVL74:
 836 0022 5242     		neg	r2, r2
 837 0024 9246     		mov	r10, r2
 838 0026 01E0     		b	.L50
 839              	.LVL75:
 840              	.L60:
 686:.\Generated_Source\PSoC4/StripLights_1.c **** 	}
 687:.\Generated_Source\PSoC4/StripLights_1.c **** 	else
 688:.\Generated_Source\PSoC4/StripLights_1.c **** 	{
 689:.\Generated_Source\PSoC4/StripLights_1.c **** 		stepy = 1;
 841              		.loc 1 689 0
 842 0028 0122     		mov	r2, #1
 843              	.LVL76:
 844 002a 9246     		mov	r10, r2
 845              	.L50:
 846              	.LVL77:
 690:.\Generated_Source\PSoC4/StripLights_1.c **** 	}
 691:.\Generated_Source\PSoC4/StripLights_1.c **** 
 692:.\Generated_Source\PSoC4/StripLights_1.c **** 	if (dx < 0)
 847              		.loc 1 692 0
 848 002c 002F     		cmp	r7, #0
 849 002e 04DA     		bge	.L61
 693:.\Generated_Source\PSoC4/StripLights_1.c **** 	{
 694:.\Generated_Source\PSoC4/StripLights_1.c **** 		dx = -dx;
 850              		.loc 1 694 0
 851 0030 7F42     		neg	r7, r7
 852              	.LVL78:
 695:.\Generated_Source\PSoC4/StripLights_1.c **** 		stepx = -1;
 853              		.loc 1 695 0
 854 0032 0122     		mov	r2, #1
 855 0034 5242     		neg	r2, r2
 856 0036 9146     		mov	r9, r2
 857 0038 01E0     		b	.L51
 858              	.LVL79:
 859              	.L61:
 696:.\Generated_Source\PSoC4/StripLights_1.c **** 	}
 697:.\Generated_Source\PSoC4/StripLights_1.c **** 	else
 698:.\Generated_Source\PSoC4/StripLights_1.c **** 	{
ARM GAS  C:\Users\JONSHA~1\AppData\Local\Temp\ccGUQV9X.s 			page 29


 699:.\Generated_Source\PSoC4/StripLights_1.c **** 		stepx = 1;
 860              		.loc 1 699 0
 861 003a 0122     		mov	r2, #1
 862 003c 9146     		mov	r9, r2
 863              	.L51:
 864              	.LVL80:
 700:.\Generated_Source\PSoC4/StripLights_1.c **** 	}
 701:.\Generated_Source\PSoC4/StripLights_1.c **** 
 702:.\Generated_Source\PSoC4/StripLights_1.c **** 	dy <<= 1; /* dy is now 2*dy  */
 865              		.loc 1 702 0
 866 003e 5B00     		lsl	r3, r3, #1
 867              	.LVL81:
 868 0040 9846     		mov	r8, r3
 869              	.LVL82:
 703:.\Generated_Source\PSoC4/StripLights_1.c **** 	dx <<= 1; /* dx is now 2*dx  */
 870              		.loc 1 703 0
 871 0042 7F00     		lsl	r7, r7, #1
 872              	.LVL83:
 704:.\Generated_Source\PSoC4/StripLights_1.c **** 	StripLights_1_Pixel(x0, y0, color);
 873              		.loc 1 704 0
 874 0044 201C     		mov	r0, r4
 875              	.LVL84:
 876 0046 291C     		mov	r1, r5
 877              	.LVL85:
 878 0048 0C9A     		ldr	r2, [sp, #48]
 879 004a FFF7FEFF 		bl	StripLights_1_Pixel
 880              	.LVL86:
 705:.\Generated_Source\PSoC4/StripLights_1.c **** 
 706:.\Generated_Source\PSoC4/StripLights_1.c **** 	if (dx > dy) 
 881              		.loc 1 706 0
 882 004e 4745     		cmp	r7, r8
 883 0050 12DD     		ble	.L52
 884              	.LBB2:
 707:.\Generated_Source\PSoC4/StripLights_1.c **** 	{
 708:.\Generated_Source\PSoC4/StripLights_1.c **** 		int fraction = dy - (dx >> 1);
 885              		.loc 1 708 0
 886 0052 7B10     		asr	r3, r7, #1
 887 0054 4246     		mov	r2, r8
 888 0056 D61A     		sub	r6, r2, r3
 889              	.LVL87:
 709:.\Generated_Source\PSoC4/StripLights_1.c **** 		while (x0 != x1)
 890              		.loc 1 709 0
 891 0058 0AE0     		b	.L53
 892              	.L55:
 710:.\Generated_Source\PSoC4/StripLights_1.c **** 		{
 711:.\Generated_Source\PSoC4/StripLights_1.c **** 			if (fraction >= 0)
 893              		.loc 1 711 0
 894 005a 002E     		cmp	r6, #0
 895 005c 01DB     		blt	.L54
 712:.\Generated_Source\PSoC4/StripLights_1.c **** 			{
 713:.\Generated_Source\PSoC4/StripLights_1.c **** 				y0 += stepy;
 896              		.loc 1 713 0
 897 005e 5544     		add	r5, r5, r10
 898              	.LVL88:
 714:.\Generated_Source\PSoC4/StripLights_1.c **** 				fraction -= dx;
 899              		.loc 1 714 0
 900 0060 F61B     		sub	r6, r6, r7
ARM GAS  C:\Users\JONSHA~1\AppData\Local\Temp\ccGUQV9X.s 			page 30


 901              	.LVL89:
 902              	.L54:
 715:.\Generated_Source\PSoC4/StripLights_1.c **** 			}
 716:.\Generated_Source\PSoC4/StripLights_1.c **** 			x0 += stepx;
 903              		.loc 1 716 0
 904 0062 4C44     		add	r4, r4, r9
 905              	.LVL90:
 717:.\Generated_Source\PSoC4/StripLights_1.c **** 			fraction += dy;
 906              		.loc 1 717 0
 907 0064 4644     		add	r6, r6, r8
 908              	.LVL91:
 718:.\Generated_Source\PSoC4/StripLights_1.c **** 			StripLights_1_Pixel(x0, y0, color);
 909              		.loc 1 718 0
 910 0066 201C     		mov	r0, r4
 911 0068 291C     		mov	r1, r5
 912 006a 0C9A     		ldr	r2, [sp, #48]
 913 006c FFF7FEFF 		bl	StripLights_1_Pixel
 914              	.LVL92:
 915              	.L53:
 709:.\Generated_Source\PSoC4/StripLights_1.c **** 		{
 916              		.loc 1 709 0
 917 0070 019B     		ldr	r3, [sp, #4]
 918 0072 9C42     		cmp	r4, r3
 919 0074 F1D1     		bne	.L55
 920 0076 11E0     		b	.L49
 921              	.LVL93:
 922              	.L52:
 923              	.LBE2:
 924              	.LBB3:
 719:.\Generated_Source\PSoC4/StripLights_1.c **** 		}
 720:.\Generated_Source\PSoC4/StripLights_1.c **** 	}
 721:.\Generated_Source\PSoC4/StripLights_1.c **** 	else
 722:.\Generated_Source\PSoC4/StripLights_1.c **** 	{
 723:.\Generated_Source\PSoC4/StripLights_1.c **** 		int fraction = dx - (dy >> 1);
 925              		.loc 1 723 0
 926 0078 4346     		mov	r3, r8
 927 007a 5E10     		asr	r6, r3, #1
 928 007c BE1B     		sub	r6, r7, r6
 929              	.LVL94:
 724:.\Generated_Source\PSoC4/StripLights_1.c **** 		while (y0 != y1)
 930              		.loc 1 724 0
 931 007e 0BE0     		b	.L57
 932              	.L59:
 725:.\Generated_Source\PSoC4/StripLights_1.c **** 		{
 726:.\Generated_Source\PSoC4/StripLights_1.c **** 			if (fraction >= 0)
 933              		.loc 1 726 0
 934 0080 002E     		cmp	r6, #0
 935 0082 02DB     		blt	.L58
 727:.\Generated_Source\PSoC4/StripLights_1.c **** 			{
 728:.\Generated_Source\PSoC4/StripLights_1.c **** 				x0 += stepx;
 936              		.loc 1 728 0
 937 0084 4C44     		add	r4, r4, r9
 938              	.LVL95:
 729:.\Generated_Source\PSoC4/StripLights_1.c **** 				fraction -= dy;
 939              		.loc 1 729 0
 940 0086 4346     		mov	r3, r8
 941 0088 F61A     		sub	r6, r6, r3
ARM GAS  C:\Users\JONSHA~1\AppData\Local\Temp\ccGUQV9X.s 			page 31


 942              	.LVL96:
 943              	.L58:
 730:.\Generated_Source\PSoC4/StripLights_1.c **** 			}
 731:.\Generated_Source\PSoC4/StripLights_1.c **** 			y0 += stepy;
 944              		.loc 1 731 0
 945 008a 5544     		add	r5, r5, r10
 946              	.LVL97:
 732:.\Generated_Source\PSoC4/StripLights_1.c **** 			fraction += dx;
 947              		.loc 1 732 0
 948 008c F619     		add	r6, r6, r7
 949              	.LVL98:
 733:.\Generated_Source\PSoC4/StripLights_1.c **** 			StripLights_1_Pixel( x0, y0, color);
 950              		.loc 1 733 0
 951 008e 201C     		mov	r0, r4
 952 0090 291C     		mov	r1, r5
 953 0092 0C9A     		ldr	r2, [sp, #48]
 954 0094 FFF7FEFF 		bl	StripLights_1_Pixel
 955              	.LVL99:
 956              	.L57:
 724:.\Generated_Source\PSoC4/StripLights_1.c **** 		{
 957              		.loc 1 724 0
 958 0098 5D45     		cmp	r5, fp
 959 009a F1D1     		bne	.L59
 960              	.LVL100:
 961              	.L49:
 962              	.LBE3:
 734:.\Generated_Source\PSoC4/StripLights_1.c **** 		}
 735:.\Generated_Source\PSoC4/StripLights_1.c **** 	}
 736:.\Generated_Source\PSoC4/StripLights_1.c **** }
 963              		.loc 1 736 0
 964 009c 03B0     		add	sp, sp, #12
 965              		@ sp needed
 966              	.LVL101:
 967              	.LVL102:
 968              	.LVL103:
 969              	.LVL104:
 970              	.LVL105:
 971              	.LVL106:
 972              	.LVL107:
 973 009e 3CBC     		pop	{r2, r3, r4, r5}
 974 00a0 9046     		mov	r8, r2
 975 00a2 9946     		mov	r9, r3
 976 00a4 A246     		mov	r10, r4
 977 00a6 AB46     		mov	fp, r5
 978 00a8 F0BD     		pop	{r4, r5, r6, r7, pc}
 979              		.cfi_endproc
 980              	.LFE47:
 981              		.size	StripLights_1_DrawLine, .-StripLights_1_DrawLine
 982 00aa C046     		.section	.text.StripLights_1_DrawRect,"ax",%progbits
 983              		.align	2
 984              		.global	StripLights_1_DrawRect
 985              		.code	16
 986              		.thumb_func
 987              		.type	StripLights_1_DrawRect, %function
 988              	StripLights_1_DrawRect:
 989              	.LFB48:
 737:.\Generated_Source\PSoC4/StripLights_1.c **** 
ARM GAS  C:\Users\JONSHA~1\AppData\Local\Temp\ccGUQV9X.s 			page 32


 738:.\Generated_Source\PSoC4/StripLights_1.c **** /*******************************************************************************
 739:.\Generated_Source\PSoC4/StripLights_1.c **** * Function Name: StripLights_1_DrawRect
 740:.\Generated_Source\PSoC4/StripLights_1.c **** ********************************************************************************
 741:.\Generated_Source\PSoC4/StripLights_1.c **** *
 742:.\Generated_Source\PSoC4/StripLights_1.c **** * Summary:
 743:.\Generated_Source\PSoC4/StripLights_1.c **** *  Draw a rectangle, filled or not.  
 744:.\Generated_Source\PSoC4/StripLights_1.c **** *
 745:.\Generated_Source\PSoC4/StripLights_1.c **** * Parameters:  
 746:.\Generated_Source\PSoC4/StripLights_1.c **** *  x0, y0:  The upper lefthand corner.
 747:.\Generated_Source\PSoC4/StripLights_1.c **** *  x1, y1:  The lower right corner.
 748:.\Generated_Source\PSoC4/StripLights_1.c **** *  fill:    Non-Zero if retangle is to be filled.
 749:.\Generated_Source\PSoC4/StripLights_1.c **** *  color:   Color for rectangle, border and fill.
 750:.\Generated_Source\PSoC4/StripLights_1.c **** *
 751:.\Generated_Source\PSoC4/StripLights_1.c **** * Return: 
 752:.\Generated_Source\PSoC4/StripLights_1.c **** *  None 
 753:.\Generated_Source\PSoC4/StripLights_1.c **** *  
 754:.\Generated_Source\PSoC4/StripLights_1.c **** *******************************************************************************/
 755:.\Generated_Source\PSoC4/StripLights_1.c **** void StripLights_1_DrawRect(int32 x0, int32 y0, int32 x1, int32 y1, int32 fill, uint32 color)
 756:.\Generated_Source\PSoC4/StripLights_1.c **** {	
 990              		.loc 1 756 0
 991              		.cfi_startproc
 992              	.LVL108:
 993 0000 F0B5     		push	{r4, r5, r6, r7, lr}
 994              		.cfi_def_cfa_offset 20
 995              		.cfi_offset 4, -20
 996              		.cfi_offset 5, -16
 997              		.cfi_offset 6, -12
 998              		.cfi_offset 7, -8
 999              		.cfi_offset 14, -4
 1000 0002 85B0     		sub	sp, sp, #20
 1001              		.cfi_def_cfa_offset 40
 1002 0004 041C     		mov	r4, r0
 1003 0006 0291     		str	r1, [sp, #8]
 1004 0008 161C     		mov	r6, r2
 1005 000a 0393     		str	r3, [sp, #12]
 1006 000c 0B9F     		ldr	r7, [sp, #44]
 757:.\Generated_Source\PSoC4/StripLights_1.c ****      int xDiff;
 758:.\Generated_Source\PSoC4/StripLights_1.c **** 	/* Check if the rectangle is to be filled    */
 759:.\Generated_Source\PSoC4/StripLights_1.c **** 	if (fill != 0)
 1007              		.loc 1 759 0
 1008 000e 0A9B     		ldr	r3, [sp, #40]
 1009              	.LVL109:
 1010 0010 002B     		cmp	r3, #0
 1011 0012 15D0     		beq	.L63
 760:.\Generated_Source\PSoC4/StripLights_1.c **** 	{	
 761:.\Generated_Source\PSoC4/StripLights_1.c ****         /* Find the difference between the x vars */
 762:.\Generated_Source\PSoC4/StripLights_1.c **** 		if(x0 > x1)
 1012              		.loc 1 762 0
 1013 0014 9042     		cmp	r0, r2
 1014 0016 01DD     		ble	.L64
 763:.\Generated_Source\PSoC4/StripLights_1.c **** 		{
 764:.\Generated_Source\PSoC4/StripLights_1.c **** 			xDiff = x0 - x1; 
 1015              		.loc 1 764 0
 1016 0018 851A     		sub	r5, r0, r2
 1017              	.LVL110:
 1018 001a 0EE0     		b	.L65
 1019              	.LVL111:
ARM GAS  C:\Users\JONSHA~1\AppData\Local\Temp\ccGUQV9X.s 			page 33


 1020              	.L64:
 765:.\Generated_Source\PSoC4/StripLights_1.c **** 		}
 766:.\Generated_Source\PSoC4/StripLights_1.c **** 		else
 767:.\Generated_Source\PSoC4/StripLights_1.c **** 		{
 768:.\Generated_Source\PSoC4/StripLights_1.c **** 			xDiff = x1 - x0;
 1021              		.loc 1 768 0
 1022 001c 151A     		sub	r5, r2, r0
 1023              	.LVL112:
 1024 001e 0CE0     		b	.L65
 1025              	.LVL113:
 1026              	.L69:
 769:.\Generated_Source\PSoC4/StripLights_1.c **** 		}
 770:.\Generated_Source\PSoC4/StripLights_1.c **** 	
 771:.\Generated_Source\PSoC4/StripLights_1.c **** 	    /* Fill it with lines  */
 772:.\Generated_Source\PSoC4/StripLights_1.c **** 		while(xDiff >= 0)
 773:.\Generated_Source\PSoC4/StripLights_1.c **** 		{
 774:.\Generated_Source\PSoC4/StripLights_1.c **** 			StripLights_1_DrawLine(x0, y0, x0, y1, color);
 1027              		.loc 1 774 0
 1028 0020 0097     		str	r7, [sp]
 1029 0022 201C     		mov	r0, r4
 1030 0024 0299     		ldr	r1, [sp, #8]
 1031 0026 221C     		mov	r2, r4
 1032 0028 039B     		ldr	r3, [sp, #12]
 1033 002a FFF7FEFF 		bl	StripLights_1_DrawLine
 1034              	.LVL114:
 775:.\Generated_Source\PSoC4/StripLights_1.c **** 		
 776:.\Generated_Source\PSoC4/StripLights_1.c **** 			if(x0 > x1)
 1035              		.loc 1 776 0
 1036 002e B442     		cmp	r4, r6
 1037 0030 01DD     		ble	.L67
 777:.\Generated_Source\PSoC4/StripLights_1.c **** 				x0--;
 1038              		.loc 1 777 0
 1039 0032 013C     		sub	r4, r4, #1
 1040              	.LVL115:
 1041 0034 00E0     		b	.L68
 1042              	.L67:
 778:.\Generated_Source\PSoC4/StripLights_1.c **** 			else
 779:.\Generated_Source\PSoC4/StripLights_1.c **** 				x0++;
 1043              		.loc 1 779 0
 1044 0036 0134     		add	r4, r4, #1
 1045              	.LVL116:
 1046              	.L68:
 780:.\Generated_Source\PSoC4/StripLights_1.c **** 		
 781:.\Generated_Source\PSoC4/StripLights_1.c **** 			xDiff--;
 1047              		.loc 1 781 0
 1048 0038 013D     		sub	r5, r5, #1
 1049              	.LVL117:
 1050              	.L65:
 772:.\Generated_Source\PSoC4/StripLights_1.c **** 		{
 1051              		.loc 1 772 0
 1052 003a 002D     		cmp	r5, #0
 1053 003c F0DA     		bge	.L69
 1054 003e 1AE0     		b	.L62
 1055              	.LVL118:
 1056              	.L63:
 782:.\Generated_Source\PSoC4/StripLights_1.c **** 		}
 783:.\Generated_Source\PSoC4/StripLights_1.c **** 
ARM GAS  C:\Users\JONSHA~1\AppData\Local\Temp\ccGUQV9X.s 			page 34


 784:.\Generated_Source\PSoC4/StripLights_1.c **** 	}
 785:.\Generated_Source\PSoC4/StripLights_1.c **** 	else 
 786:.\Generated_Source\PSoC4/StripLights_1.c **** 	{
 787:.\Generated_Source\PSoC4/StripLights_1.c **** 		/* Draw the four sides of the rectangle */
 788:.\Generated_Source\PSoC4/StripLights_1.c **** 		StripLights_1_DrawLine(x0, y0, x1, y0, color);
 1057              		.loc 1 788 0
 1058 0040 0097     		str	r7, [sp]
 1059 0042 029B     		ldr	r3, [sp, #8]
 1060 0044 191C     		mov	r1, r3
 1061              	.LVL119:
 1062 0046 FFF7FEFF 		bl	StripLights_1_DrawLine
 1063              	.LVL120:
 789:.\Generated_Source\PSoC4/StripLights_1.c **** 		StripLights_1_DrawLine(x0, y1, x1, y1, color);
 1064              		.loc 1 789 0
 1065 004a 0097     		str	r7, [sp]
 1066 004c 201C     		mov	r0, r4
 1067 004e 039D     		ldr	r5, [sp, #12]
 1068 0050 291C     		mov	r1, r5
 1069 0052 321C     		mov	r2, r6
 1070 0054 2B1C     		mov	r3, r5
 1071 0056 FFF7FEFF 		bl	StripLights_1_DrawLine
 1072              	.LVL121:
 790:.\Generated_Source\PSoC4/StripLights_1.c **** 		StripLights_1_DrawLine(x0, y0, x0, y1, color);
 1073              		.loc 1 790 0
 1074 005a 0097     		str	r7, [sp]
 1075 005c 201C     		mov	r0, r4
 1076 005e 0299     		ldr	r1, [sp, #8]
 1077 0060 221C     		mov	r2, r4
 1078 0062 2B1C     		mov	r3, r5
 1079 0064 FFF7FEFF 		bl	StripLights_1_DrawLine
 1080              	.LVL122:
 791:.\Generated_Source\PSoC4/StripLights_1.c **** 		StripLights_1_DrawLine(x1, y0, x1, y1, color);
 1081              		.loc 1 791 0
 1082 0068 0097     		str	r7, [sp]
 1083 006a 301C     		mov	r0, r6
 1084 006c 0299     		ldr	r1, [sp, #8]
 1085 006e 321C     		mov	r2, r6
 1086 0070 2B1C     		mov	r3, r5
 1087 0072 FFF7FEFF 		bl	StripLights_1_DrawLine
 1088              	.LVL123:
 1089              	.L62:
 792:.\Generated_Source\PSoC4/StripLights_1.c **** 	}
 793:.\Generated_Source\PSoC4/StripLights_1.c **** }
 1090              		.loc 1 793 0
 1091 0076 05B0     		add	sp, sp, #20
 1092              		@ sp needed
 1093              	.LVL124:
 1094              	.LVL125:
 1095 0078 F0BD     		pop	{r4, r5, r6, r7, pc}
 1096              		.cfi_endproc
 1097              	.LFE48:
 1098              		.size	StripLights_1_DrawRect, .-StripLights_1_DrawRect
 1099 007a C046     		.section	.text.StripLights_1_Dim,"ax",%progbits
 1100              		.align	2
 1101              		.global	StripLights_1_Dim
 1102              		.code	16
 1103              		.thumb_func
ARM GAS  C:\Users\JONSHA~1\AppData\Local\Temp\ccGUQV9X.s 			page 35


 1104              		.type	StripLights_1_Dim, %function
 1105              	StripLights_1_Dim:
 1106              	.LFB49:
 794:.\Generated_Source\PSoC4/StripLights_1.c **** 
 795:.\Generated_Source\PSoC4/StripLights_1.c **** /*******************************************************************************
 796:.\Generated_Source\PSoC4/StripLights_1.c **** * Function Name: StripLights_1_Dim
 797:.\Generated_Source\PSoC4/StripLights_1.c **** ********************************************************************************
 798:.\Generated_Source\PSoC4/StripLights_1.c **** *
 799:.\Generated_Source\PSoC4/StripLights_1.c **** * Summary:
 800:.\Generated_Source\PSoC4/StripLights_1.c **** *  Dim all output by a specific level (0,1,2,3,4)  
 801:.\Generated_Source\PSoC4/StripLights_1.c **** *
 802:.\Generated_Source\PSoC4/StripLights_1.c **** * Parameters:  
 803:.\Generated_Source\PSoC4/StripLights_1.c **** *  dimLevel:  Dim level 1 to 4, 0 => No dimming.
 804:.\Generated_Source\PSoC4/StripLights_1.c **** *
 805:.\Generated_Source\PSoC4/StripLights_1.c **** * Return: 
 806:.\Generated_Source\PSoC4/StripLights_1.c **** *  None 
 807:.\Generated_Source\PSoC4/StripLights_1.c **** *  
 808:.\Generated_Source\PSoC4/StripLights_1.c **** *******************************************************************************/
 809:.\Generated_Source\PSoC4/StripLights_1.c **** void StripLights_1_Dim(uint32 dimLevel) 
 810:.\Generated_Source\PSoC4/StripLights_1.c **** {
 1107              		.loc 1 810 0
 1108              		.cfi_startproc
 1109              	.LVL126:
 811:.\Generated_Source\PSoC4/StripLights_1.c **** extern uint32  StripLights_1_DimMask;
 812:.\Generated_Source\PSoC4/StripLights_1.c **** extern uint32  StripLights_1_DimShift;
 813:.\Generated_Source\PSoC4/StripLights_1.c **** 
 814:.\Generated_Source\PSoC4/StripLights_1.c ****     switch(dimLevel)
 1110              		.loc 1 814 0
 1111 0000 0228     		cmp	r0, #2
 1112 0002 0FD0     		beq	.L73
 1113 0004 02D8     		bhi	.L74
 1114 0006 0128     		cmp	r0, #1
 1115 0008 05D0     		beq	.L75
 1116 000a 20E0     		b	.L72
 1117              	.L74:
 1118 000c 0328     		cmp	r0, #3
 1119 000e 10D0     		beq	.L76
 1120 0010 0428     		cmp	r0, #4
 1121 0012 15D0     		beq	.L77
 1122 0014 1BE0     		b	.L72
 1123              	.L75:
 815:.\Generated_Source\PSoC4/StripLights_1.c ****     {
 816:.\Generated_Source\PSoC4/StripLights_1.c ****        case 1:  // 1/2 bright
 817:.\Generated_Source\PSoC4/StripLights_1.c ****            StripLights_1_DimMask = 0x007F7F7F;
 1124              		.loc 1 817 0
 1125 0016 114A     		ldr	r2, .L79
 1126 0018 114B     		ldr	r3, .L79+4
 1127 001a 1A60     		str	r2, [r3]
 818:.\Generated_Source\PSoC4/StripLights_1.c ****            StripLights_1_DimShift = 1;
 1128              		.loc 1 818 0
 1129 001c 0122     		mov	r2, #1
 1130 001e 114B     		ldr	r3, .L79+8
 1131 0020 1A60     		str	r2, [r3]
 819:.\Generated_Source\PSoC4/StripLights_1.c ****            break;
 1132              		.loc 1 819 0
 1133 0022 1AE0     		b	.L71
 1134              	.L73:
ARM GAS  C:\Users\JONSHA~1\AppData\Local\Temp\ccGUQV9X.s 			page 36


 820:.\Generated_Source\PSoC4/StripLights_1.c ****            
 821:.\Generated_Source\PSoC4/StripLights_1.c ****        case 2:
 822:.\Generated_Source\PSoC4/StripLights_1.c ****            StripLights_1_DimMask = 0x003F3F3F;
 1135              		.loc 1 822 0
 1136 0024 104A     		ldr	r2, .L79+12
 1137 0026 0E4B     		ldr	r3, .L79+4
 1138 0028 1A60     		str	r2, [r3]
 823:.\Generated_Source\PSoC4/StripLights_1.c ****            StripLights_1_DimShift = 2;
 1139              		.loc 1 823 0
 1140 002a 0222     		mov	r2, #2
 1141 002c 0D4B     		ldr	r3, .L79+8
 1142 002e 1A60     		str	r2, [r3]
 824:.\Generated_Source\PSoC4/StripLights_1.c ****            break;
 1143              		.loc 1 824 0
 1144 0030 13E0     		b	.L71
 1145              	.L76:
 825:.\Generated_Source\PSoC4/StripLights_1.c ****            
 826:.\Generated_Source\PSoC4/StripLights_1.c ****        case 3:
 827:.\Generated_Source\PSoC4/StripLights_1.c ****            StripLights_1_DimMask = 0x001F1F1F;
 1146              		.loc 1 827 0
 1147 0032 0E4A     		ldr	r2, .L79+16
 1148 0034 0A4B     		ldr	r3, .L79+4
 1149 0036 1A60     		str	r2, [r3]
 828:.\Generated_Source\PSoC4/StripLights_1.c ****            StripLights_1_DimShift = 3;
 1150              		.loc 1 828 0
 1151 0038 0322     		mov	r2, #3
 1152 003a 0A4B     		ldr	r3, .L79+8
 1153 003c 1A60     		str	r2, [r3]
 829:.\Generated_Source\PSoC4/StripLights_1.c ****            break;
 1154              		.loc 1 829 0
 1155 003e 0CE0     		b	.L71
 1156              	.L77:
 830:.\Generated_Source\PSoC4/StripLights_1.c ****            
 831:.\Generated_Source\PSoC4/StripLights_1.c ****        case 4:
 832:.\Generated_Source\PSoC4/StripLights_1.c ****            StripLights_1_DimMask = 0x000F0F0F;
 1157              		.loc 1 832 0
 1158 0040 0B4A     		ldr	r2, .L79+20
 1159 0042 074B     		ldr	r3, .L79+4
 1160 0044 1A60     		str	r2, [r3]
 833:.\Generated_Source\PSoC4/StripLights_1.c ****            StripLights_1_DimShift = 4;
 1161              		.loc 1 833 0
 1162 0046 0422     		mov	r2, #4
 1163 0048 064B     		ldr	r3, .L79+8
 1164 004a 1A60     		str	r2, [r3]
 834:.\Generated_Source\PSoC4/StripLights_1.c ****            break;
 1165              		.loc 1 834 0
 1166 004c 05E0     		b	.L71
 1167              	.L72:
 835:.\Generated_Source\PSoC4/StripLights_1.c ****            
 836:.\Generated_Source\PSoC4/StripLights_1.c ****        default:
 837:.\Generated_Source\PSoC4/StripLights_1.c ****            StripLights_1_DimMask = 0x00FFFFFF;
 1168              		.loc 1 837 0
 1169 004e 094A     		ldr	r2, .L79+24
 1170 0050 034B     		ldr	r3, .L79+4
 1171 0052 1A60     		str	r2, [r3]
 838:.\Generated_Source\PSoC4/StripLights_1.c ****            StripLights_1_DimShift = 0;
 1172              		.loc 1 838 0
ARM GAS  C:\Users\JONSHA~1\AppData\Local\Temp\ccGUQV9X.s 			page 37


 1173 0054 0022     		mov	r2, #0
 1174 0056 034B     		ldr	r3, .L79+8
 1175 0058 1A60     		str	r2, [r3]
 1176              	.L71:
 839:.\Generated_Source\PSoC4/StripLights_1.c ****            break;
 840:.\Generated_Source\PSoC4/StripLights_1.c ****         
 841:.\Generated_Source\PSoC4/StripLights_1.c ****     }
 842:.\Generated_Source\PSoC4/StripLights_1.c **** }
 1177              		.loc 1 842 0
 1178              		@ sp needed
 1179 005a 7047     		bx	lr
 1180              	.L80:
 1181              		.align	2
 1182              	.L79:
 1183 005c 7F7F7F00 		.word	8355711
 1184 0060 00000000 		.word	StripLights_1_DimMask
 1185 0064 00000000 		.word	StripLights_1_DimShift
 1186 0068 3F3F3F00 		.word	4144959
 1187 006c 1F1F1F00 		.word	2039583
 1188 0070 0F0F0F00 		.word	986895
 1189 0074 FFFFFF00 		.word	16777215
 1190              		.cfi_endproc
 1191              	.LFE49:
 1192              		.size	StripLights_1_Dim, .-StripLights_1_Dim
 1193              		.section	.text.StripLights_1_Start,"ax",%progbits
 1194              		.align	2
 1195              		.global	StripLights_1_Start
 1196              		.code	16
 1197              		.thumb_func
 1198              		.type	StripLights_1_Start, %function
 1199              	StripLights_1_Start:
 1200              	.LFB34:
 206:.\Generated_Source\PSoC4/StripLights_1.c ****     extern uint8 StripLights_1_initvar;
 1201              		.loc 1 206 0
 1202              		.cfi_startproc
 1203 0000 10B5     		push	{r4, lr}
 1204              		.cfi_def_cfa_offset 8
 1205              		.cfi_offset 4, -8
 1206              		.cfi_offset 14, -4
 210:.\Generated_Source\PSoC4/StripLights_1.c ****     
 1207              		.loc 1 210 0
 1208 0002 0322     		mov	r2, #3
 1209 0004 144B     		ldr	r3, .L83
 1210 0006 1A70     		strb	r2, [r3]
 212:.\Generated_Source\PSoC4/StripLights_1.c ****     StripLights_1_Compare0 = StripLights_1_DATA_ZERO;
 1211              		.loc 1 212 0
 1212 0008 1A32     		add	r2, r2, #26
 1213 000a 144B     		ldr	r3, .L83+4
 1214 000c 1A70     		strb	r2, [r3]
 213:.\Generated_Source\PSoC4/StripLights_1.c ****     StripLights_1_Compare1 = StripLights_1_DATA_ONE;
 1215              		.loc 1 213 0
 1216 000e 053A     		sub	r2, r2, #5
 1217 0010 134B     		ldr	r3, .L83+8
 1218 0012 1A70     		strb	r2, [r3]
 214:.\Generated_Source\PSoC4/StripLights_1.c ****     
 1219              		.loc 1 214 0
 1220 0014 0A3A     		sub	r2, r2, #10
ARM GAS  C:\Users\JONSHA~1\AppData\Local\Temp\ccGUQV9X.s 			page 38


 1221 0016 134B     		ldr	r3, .L83+12
 1222 0018 1A70     		strb	r2, [r3]
 216:.\Generated_Source\PSoC4/StripLights_1.c ****     StripLights_1_MemClear(StripLights_1_OFF);
 1223              		.loc 1 216 0
 1224 001a 134C     		ldr	r4, .L83+16
 1225 001c 0123     		mov	r3, #1
 1226 001e 2370     		strb	r3, [r4]
 217:.\Generated_Source\PSoC4/StripLights_1.c ****     StripLights_1_CONTROL = StripLights_1_DISABLE;
 1227              		.loc 1 217 0
 1228 0020 1820     		mov	r0, #24
 1229 0022 FFF7FEFF 		bl	StripLights_1_MemClear
 1230              	.LVL127:
 218:.\Generated_Source\PSoC4/StripLights_1.c ****     
 1231              		.loc 1 218 0
 1232 0026 0023     		mov	r3, #0
 1233 0028 2370     		strb	r3, [r4]
 220:.\Generated_Source\PSoC4/StripLights_1.c ****     
 1234              		.loc 1 220 0
 1235 002a 0020     		mov	r0, #0
 1236 002c FFF7FEFF 		bl	StripLights_1_SetFont
 1237              	.LVL128:
 223:.\Generated_Source\PSoC4/StripLights_1.c **** 
 1238              		.loc 1 223 0
 1239 0030 0020     		mov	r0, #0
 1240 0032 FFF7FEFF 		bl	StripLights_1_Dim
 1241              	.LVL129:
 226:.\Generated_Source\PSoC4/StripLights_1.c ****     {
 1242              		.loc 1 226 0
 1243 0036 0D4B     		ldr	r3, .L83+20
 1244 0038 1B7D     		ldrb	r3, [r3, #20]
 1245 003a 002B     		cmp	r3, #0
 1246 003c 08D1     		bne	.L82
 229:.\Generated_Source\PSoC4/StripLights_1.c ****  
 1247              		.loc 1 229 0
 1248 003e 0122     		mov	r2, #1
 1249 0040 0A4B     		ldr	r3, .L83+20
 1250 0042 1A75     		strb	r2, [r3, #20]
 235:.\Generated_Source\PSoC4/StripLights_1.c **** 		   StripLights_1_fisr_StartEx(StripLights_1_FISR);
 1251              		.loc 1 235 0
 1252 0044 0A48     		ldr	r0, .L83+24
 1253 0046 FFF7FEFF 		bl	StripLights_1_cisr_StartEx
 1254              	.LVL130:
 236:.\Generated_Source\PSoC4/StripLights_1.c ****        }
 1255              		.loc 1 236 0
 1256 004a 0A48     		ldr	r0, .L83+28
 1257 004c FFF7FEFF 		bl	StripLights_1_fisr_StartEx
 1258              	.LVL131:
 1259              	.L82:
 244:.\Generated_Source\PSoC4/StripLights_1.c **** }
 1260              		.loc 1 244 0
 1261 0050 0122     		mov	r2, #1
 1262 0052 094B     		ldr	r3, .L83+32
 1263 0054 1A60     		str	r2, [r3]
 245:.\Generated_Source\PSoC4/StripLights_1.c **** 
 1264              		.loc 1 245 0
 1265              		@ sp needed
 1266 0056 10BD     		pop	{r4, pc}
ARM GAS  C:\Users\JONSHA~1\AppData\Local\Temp\ccGUQV9X.s 			page 39


 1267              	.L84:
 1268              		.align	2
 1269              	.L83:
 1270 0058 91000F40 		.word	1074725009
 1271 005c 41000F40 		.word	1074724929
 1272 0060 21000F40 		.word	1074724897
 1273 0064 31000F40 		.word	1074724913
 1274 0068 71000F40 		.word	1074724977
 1275 006c 00000000 		.word	.LANCHOR0
 1276 0070 00000000 		.word	StripLights_1_CISR
 1277 0074 00000000 		.word	StripLights_1_FISR
 1278 0078 00000000 		.word	StripLights_1_refreshComplete
 1279              		.cfi_endproc
 1280              	.LFE34:
 1281              		.size	StripLights_1_Start, .-StripLights_1_Start
 1282              		.section	.text.StripLights_1_bplot,"ax",%progbits
 1283              		.align	2
 1284              		.global	StripLights_1_bplot
 1285              		.code	16
 1286              		.thumb_func
 1287              		.type	StripLights_1_bplot, %function
 1288              	StripLights_1_bplot:
 1289              	.LFB50:
 843:.\Generated_Source\PSoC4/StripLights_1.c **** 
 844:.\Generated_Source\PSoC4/StripLights_1.c **** void StripLights_1_bplot( int32 x, int32 y, uint8 * bitMap, int32 update)
 845:.\Generated_Source\PSoC4/StripLights_1.c **** {
 1290              		.loc 1 845 0
 1291              		.cfi_startproc
 1292              	.LVL132:
 1293 0000 F0B5     		push	{r4, r5, r6, r7, lr}
 1294              		.cfi_def_cfa_offset 20
 1295              		.cfi_offset 4, -20
 1296              		.cfi_offset 5, -16
 1297              		.cfi_offset 6, -12
 1298              		.cfi_offset 7, -8
 1299              		.cfi_offset 14, -4
 1300 0002 5F46     		mov	r7, fp
 1301 0004 4646     		mov	r6, r8
 1302 0006 C0B4     		push	{r6, r7}
 1303              		.cfi_def_cfa_offset 28
 1304              		.cfi_offset 8, -28
 1305              		.cfi_offset 11, -24
 1306 0008 83B0     		sub	sp, sp, #12
 1307              		.cfi_def_cfa_offset 40
 1308 000a 0190     		str	r0, [sp, #4]
 1309 000c 0091     		str	r1, [sp]
 1310 000e 171C     		mov	r7, r2
 1311 0010 9B46     		mov	fp, r3
 1312              	.LVL133:
 846:.\Generated_Source\PSoC4/StripLights_1.c ****     int32 dx, dy;
 847:.\Generated_Source\PSoC4/StripLights_1.c ****     int32 aindex = 0;
 848:.\Generated_Source\PSoC4/StripLights_1.c ****     int32 maxX, maxY;
 849:.\Generated_Source\PSoC4/StripLights_1.c **** 
 850:.\Generated_Source\PSoC4/StripLights_1.c ****     maxX = x + (int32)bitMap[aindex++];
 1313              		.loc 1 850 0
 1314 0012 1378     		ldrb	r3, [r2]
 1315              	.LVL134:
ARM GAS  C:\Users\JONSHA~1\AppData\Local\Temp\ccGUQV9X.s 			page 40


 1316 0014 1E18     		add	r6, r3, r0
 1317              	.LVL135:
 851:.\Generated_Source\PSoC4/StripLights_1.c ****     maxY = y  + (int32)bitMap[aindex++];
 1318              		.loc 1 851 0
 1319 0016 7B78     		ldrb	r3, [r7, #1]
 1320 0018 8846     		mov	r8, r1
 1321 001a 9844     		add	r8, r8, r3
 1322              	.LVL136:
 1323 001c 0223     		mov	r3, #2
 852:.\Generated_Source\PSoC4/StripLights_1.c **** 
 853:.\Generated_Source\PSoC4/StripLights_1.c **** 	for(dy = y; dy < maxY; dy++)
 1324              		.loc 1 853 0
 1325 001e 0EE0     		b	.L86
 1326              	.LVL137:
 1327              	.L87:
 854:.\Generated_Source\PSoC4/StripLights_1.c ****     {
 855:.\Generated_Source\PSoC4/StripLights_1.c **** 		for(dx = x; dx < maxX; dx++)
 856:.\Generated_Source\PSoC4/StripLights_1.c ****         {
 857:.\Generated_Source\PSoC4/StripLights_1.c ****             StripLights_1_Pixel(dx, dy, bitMap[aindex++]);
 1328              		.loc 1 857 0 discriminator 3
 1329 0020 5D1C     		add	r5, r3, #1
 1330              	.LVL138:
 1331 0022 FA5C     		ldrb	r2, [r7, r3]
 1332 0024 201C     		mov	r0, r4
 1333 0026 0099     		ldr	r1, [sp]
 1334 0028 FFF7FEFF 		bl	StripLights_1_Pixel
 1335              	.LVL139:
 855:.\Generated_Source\PSoC4/StripLights_1.c ****         {
 1336              		.loc 1 855 0 discriminator 3
 1337 002c 0134     		add	r4, r4, #1
 1338              	.LVL140:
 1339              		.loc 1 857 0 discriminator 3
 1340 002e 2B1C     		mov	r3, r5
 1341 0030 00E0     		b	.L88
 1342              	.LVL141:
 1343              	.L90:
 1344 0032 019C     		ldr	r4, [sp, #4]
 1345              	.LVL142:
 1346              	.L88:
 855:.\Generated_Source\PSoC4/StripLights_1.c ****         {
 1347              		.loc 1 855 0 discriminator 1
 1348 0034 B442     		cmp	r4, r6
 1349 0036 F3DB     		blt	.L87
 853:.\Generated_Source\PSoC4/StripLights_1.c ****     {
 1350              		.loc 1 853 0 discriminator 2
 1351 0038 009A     		ldr	r2, [sp]
 1352 003a 0132     		add	r2, r2, #1
 1353 003c 0092     		str	r2, [sp]
 1354              	.LVL143:
 1355              	.L86:
 853:.\Generated_Source\PSoC4/StripLights_1.c ****     {
 1356              		.loc 1 853 0 is_stmt 0 discriminator 1
 1357 003e 009A     		ldr	r2, [sp]
 1358 0040 4245     		cmp	r2, r8
 1359 0042 F6DB     		blt	.L90
 858:.\Generated_Source\PSoC4/StripLights_1.c ****         }
 859:.\Generated_Source\PSoC4/StripLights_1.c ****     }
ARM GAS  C:\Users\JONSHA~1\AppData\Local\Temp\ccGUQV9X.s 			page 41


 860:.\Generated_Source\PSoC4/StripLights_1.c **** 	if(update) StripLights_1_Trigger(1);
 1360              		.loc 1 860 0 is_stmt 1
 1361 0044 5B46     		mov	r3, fp
 1362              	.LVL144:
 1363 0046 002B     		cmp	r3, #0
 1364 0048 02D0     		beq	.L85
 1365              	.LVL145:
 1366              		.loc 1 860 0 is_stmt 0 discriminator 1
 1367 004a 0120     		mov	r0, #1
 1368 004c FFF7FEFF 		bl	StripLights_1_Trigger
 1369              	.LVL146:
 1370              	.L85:
 861:.\Generated_Source\PSoC4/StripLights_1.c **** }
 1371              		.loc 1 861 0 is_stmt 1
 1372 0050 03B0     		add	sp, sp, #12
 1373              	.LVL147:
 1374              		@ sp needed
 1375              	.LVL148:
 1376              	.LVL149:
 1377              	.LVL150:
 1378              	.LVL151:
 1379 0052 0CBC     		pop	{r2, r3}
 1380 0054 9046     		mov	r8, r2
 1381 0056 9B46     		mov	fp, r3
 1382 0058 F0BD     		pop	{r4, r5, r6, r7, pc}
 1383              		.cfi_endproc
 1384              	.LFE50:
 1385              		.size	StripLights_1_bplot, .-StripLights_1_bplot
 1386              		.global	StripLights_1_CLUT
 1387              		.comm	StripLights_1_DimShift,4,4
 1388              		.comm	StripLights_1_DimMask,4,4
 1389              		.comm	StripLights_1_refreshComplete,4,4
 1390              		.global	StripLights_1_row
 1391              		.global	StripLights_1_ledIndex
 1392              		.comm	StripLights_1_ledArray,244,4
 1393              		.global	StripLights_1_initvar
 1394 005a C046     		.section	.rodata
 1395              		.align	2
 1396              		.set	.LANCHOR1,. + 0
 1397              		.type	StripLights_1_CLUT, %object
 1398              		.size	StripLights_1_CLUT, 480
 1399              	StripLights_1_CLUT:
 1400 0000 FFFF0000 		.word	65535
 1401 0004 FFCC0000 		.word	52479
 1402 0008 FF990000 		.word	39423
 1403 000c FF330000 		.word	13311
 1404 0010 FF000000 		.word	255
 1405 0014 B3006600 		.word	6684851
 1406 0018 99009900 		.word	10027161
 1407 001c 6600B300 		.word	11731046
 1408 0020 3300CC00 		.word	13369395
 1409 0024 1919B300 		.word	11737369
 1410 0028 00339900 		.word	10040064
 1411 002c 00409900 		.word	10043392
 1412 0030 00669900 		.word	10053120
 1413 0034 00999900 		.word	10066176
 1414 0038 00CC9900 		.word	10079232
ARM GAS  C:\Users\JONSHA~1\AppData\Local\Temp\ccGUQV9X.s 			page 42


 1415 003c 00E66600 		.word	6743552
 1416 0040 00FF0000 		.word	65280
 1417 0044 33FF0000 		.word	65331
 1418 0048 66FF0000 		.word	65382
 1419 004c 80FF0000 		.word	65408
 1420 0050 99FF0000 		.word	65433
 1421 0054 B2FF0000 		.word	65458
 1422 0058 CCFF0000 		.word	65484
 1423 005c E5FF0000 		.word	65509
 1424 0060 00000000 		.word	0
 1425 0064 00005500 		.word	5570560
 1426 0068 0000AA00 		.word	11141120
 1427 006c 0000FF00 		.word	16711680
 1428 0070 55000000 		.word	85
 1429 0074 55005500 		.word	5570645
 1430 0078 5500AA00 		.word	11141205
 1431 007c 5500FF00 		.word	16711765
 1432 0080 AA000000 		.word	170
 1433 0084 AA005500 		.word	5570730
 1434 0088 AA00AA00 		.word	11141290
 1435 008c AA00FF00 		.word	16711850
 1436 0090 FF000000 		.word	255
 1437 0094 FF005500 		.word	5570815
 1438 0098 FF00AA00 		.word	11141375
 1439 009c FF00FF00 		.word	16711935
 1440 00a0 00550000 		.word	21760
 1441 00a4 00555500 		.word	5592320
 1442 00a8 0055AA00 		.word	11162880
 1443 00ac 0055FF00 		.word	16733440
 1444 00b0 55550000 		.word	21845
 1445 00b4 55555500 		.word	5592405
 1446 00b8 5555AA00 		.word	11162965
 1447 00bc 5555FF00 		.word	16733525
 1448 00c0 AA550000 		.word	21930
 1449 00c4 AA555500 		.word	5592490
 1450 00c8 AA55AA00 		.word	11163050
 1451 00cc AA55FF00 		.word	16733610
 1452 00d0 FF550000 		.word	22015
 1453 00d4 FF555500 		.word	5592575
 1454 00d8 FF55AA00 		.word	11163135
 1455 00dc FF55FF00 		.word	16733695
 1456 00e0 00AA0000 		.word	43520
 1457 00e4 00AA5500 		.word	5614080
 1458 00e8 00AAAA00 		.word	11184640
 1459 00ec 00AAFF00 		.word	16755200
 1460 00f0 55AA0000 		.word	43605
 1461 00f4 55AA5500 		.word	5614165
 1462 00f8 55AAAA00 		.word	11184725
 1463 00fc 55AAFF00 		.word	16755285
 1464 0100 AAAA0000 		.word	43690
 1465 0104 AAAA5500 		.word	5614250
 1466 0108 AAAAAA00 		.word	11184810
 1467 010c AAAAFF00 		.word	16755370
 1468 0110 FFAA0000 		.word	43775
 1469 0114 FFAA5500 		.word	5614335
 1470 0118 FFAAAA00 		.word	11184895
 1471 011c FFAAFF00 		.word	16755455
ARM GAS  C:\Users\JONSHA~1\AppData\Local\Temp\ccGUQV9X.s 			page 43


 1472 0120 00FF0000 		.word	65280
 1473 0124 00FF5500 		.word	5635840
 1474 0128 00FFAA00 		.word	11206400
 1475 012c 00FFFF00 		.word	16776960
 1476 0130 55FF0000 		.word	65365
 1477 0134 55FF5500 		.word	5635925
 1478 0138 55FFAA00 		.word	11206485
 1479 013c 55FFFF00 		.word	16777045
 1480 0140 AAFF0000 		.word	65450
 1481 0144 AAFF5500 		.word	5636010
 1482 0148 AAFFAA00 		.word	11206570
 1483 014c AAFFFF00 		.word	16777130
 1484 0150 FFFF0000 		.word	65535
 1485 0154 FFFF5500 		.word	5636095
 1486 0158 FFFFAA00 		.word	11206655
 1487 015c FFFFFF00 		.word	16777215
 1488 0160 FF800000 		.word	33023
 1489 0164 FF008000 		.word	8388863
 1490 0168 FF00FF00 		.word	16711935
 1491 016c 8000FF00 		.word	16711808
 1492 0170 0080FF00 		.word	16744448
 1493 0174 00FF8000 		.word	8453888
 1494 0178 FF000000 		.word	255
 1495 017c 20202000 		.word	2105376
 1496 0180 00002000 		.word	2097152
 1497 0184 00000010 		.word	268435456
 1498 0188 00000000 		.word	0
 1499 018c 00000000 		.word	0
 1500 0190 00000000 		.word	0
 1501 0194 00000000 		.word	0
 1502 0198 00000000 		.word	0
 1503 019c 00000000 		.word	0
 1504 01a0 0000FF00 		.word	16711680
 1505 01a4 0010F000 		.word	15732736
 1506 01a8 0020E000 		.word	14688256
 1507 01ac 0030D000 		.word	13643776
 1508 01b0 0040C000 		.word	12599296
 1509 01b4 0050B000 		.word	11554816
 1510 01b8 0060A000 		.word	10510336
 1511 01bc 00709000 		.word	9465856
 1512 01c0 00808000 		.word	8421376
 1513 01c4 00907000 		.word	7376896
 1514 01c8 00A06000 		.word	6332416
 1515 01cc 00B05000 		.word	5287936
 1516 01d0 00C04000 		.word	4243456
 1517 01d4 00D03000 		.word	3198976
 1518 01d8 00E02000 		.word	2154496
 1519 01dc 00FF0000 		.word	65280
 1520              		.bss
 1521              		.align	2
 1522              		.set	.LANCHOR0,. + 0
 1523              		.type	StripLights_1_ledIndex, %object
 1524              		.size	StripLights_1_ledIndex, 4
 1525              	StripLights_1_ledIndex:
 1526 0000 00000000 		.space	4
 1527              		.type	StripLights_1_row, %object
 1528              		.size	StripLights_1_row, 4
ARM GAS  C:\Users\JONSHA~1\AppData\Local\Temp\ccGUQV9X.s 			page 44


 1529              	StripLights_1_row:
 1530 0004 00000000 		.space	4
 1531              		.type	color.5507, %object
 1532              		.size	color.5507, 4
 1533              	color.5507:
 1534 0008 00000000 		.space	4
 1535              		.type	color.5515, %object
 1536              		.size	color.5515, 4
 1537              	color.5515:
 1538 000c 00000000 		.space	4
 1539              		.type	colorIndex.5500, %object
 1540              		.size	colorIndex.5500, 4
 1541              	colorIndex.5500:
 1542 0010 00000000 		.space	4
 1543              		.type	StripLights_1_initvar, %object
 1544              		.size	StripLights_1_initvar, 1
 1545              	StripLights_1_initvar:
 1546 0014 00       		.space	1
 1547 0015 000000   		.text
 1548              	.Letext0:
 1549              		.file 2 "Generated_Source\\PSoC4/cytypes.h"
 1550              		.file 3 ".\\Generated_Source\\PSoC4\\StripLights_1_fonts.h"
 1551              		.file 4 "Generated_Source\\PSoC4/StripLights_1_cisr.h"
 1552              		.file 5 "Generated_Source\\PSoC4/StripLights_1_fisr.h"