ARM GAS  C:\Users\JONSHA~1\AppData\Local\Temp\cc9CE70d.s 			page 1


   1              		.cpu cortex-m0
   2              		.fpu softvfp
   3              		.eabi_attribute 20, 1
   4              		.eabi_attribute 21, 1
   5              		.eabi_attribute 23, 3
   6              		.eabi_attribute 24, 1
   7              		.eabi_attribute 25, 1
   8              		.eabi_attribute 26, 1
   9              		.eabi_attribute 30, 1
  10              		.eabi_attribute 34, 0
  11              		.eabi_attribute 18, 4
  12              		.code	16
  13              		.file	"StripLights.c"
  14              		.text
  15              	.Ltext0:
  16              		.cfi_sections	.debug_frame
  17              		.section	.text.StripLights_FISR,"ax",%progbits
  18              		.align	2
  19              		.global	StripLights_FISR
  20              		.code	16
  21              		.thumb_func
  22              		.type	StripLights_FISR, %function
  23              	StripLights_FISR:
  24              	.LFB39:
  25              		.file 1 ".\\Generated_Source\\PSoC4\\StripLights.c"
   1:.\Generated_Source\PSoC4/StripLights.c **** /* =========================================================
   2:.\Generated_Source\PSoC4/StripLights.c ****  *
   3:.\Generated_Source\PSoC4/StripLights.c ****  * Strip Light Controller
   4:.\Generated_Source\PSoC4/StripLights.c ****  * By Mark Hastings
   5:.\Generated_Source\PSoC4/StripLights.c ****  *
   6:.\Generated_Source\PSoC4/StripLights.c ****  * 05/27/2013  v1.0  Mark Hastings   Initial working version
   7:.\Generated_Source\PSoC4/StripLights.c ****  * 09/04/2013  v1.3  Mark Hastings   Add more features and color lookup.
   8:.\Generated_Source\PSoC4/StripLights.c ****  * 12/02/2013  v1.6  Mark Hastings   Added a couple more functions.
   9:.\Generated_Source\PSoC4/StripLights.c ****  *
  10:.\Generated_Source\PSoC4/StripLights.c ****  * This file contains the functions required to control each
  11:.\Generated_Source\PSoC4/StripLights.c ****  * lighting control channel.
  12:.\Generated_Source\PSoC4/StripLights.c ****  *
  13:.\Generated_Source\PSoC4/StripLights.c ****  * =========================================================
  14:.\Generated_Source\PSoC4/StripLights.c **** */
  15:.\Generated_Source\PSoC4/StripLights.c **** 
  16:.\Generated_Source\PSoC4/StripLights.c **** #include <project.h>
  17:.\Generated_Source\PSoC4/StripLights.c **** #include "cytypes.h"
  18:.\Generated_Source\PSoC4/StripLights.c **** #include "stdlib.h"
  19:.\Generated_Source\PSoC4/StripLights.c **** #include "cyfitter.h"
  20:.\Generated_Source\PSoC4/StripLights.c **** #include "StripLights.h"
  21:.\Generated_Source\PSoC4/StripLights.c **** #include "StripLights_fonts.h"
  22:.\Generated_Source\PSoC4/StripLights.c **** 
  23:.\Generated_Source\PSoC4/StripLights.c **** uint8  StripLights_initvar = 0;
  24:.\Generated_Source\PSoC4/StripLights.c **** 
  25:.\Generated_Source\PSoC4/StripLights.c **** #if(StripLights_MEMORY_TYPE == StripLights_MEMORY_RGB)
  26:.\Generated_Source\PSoC4/StripLights.c **** uint32  StripLights_ledArray[StripLights_ARRAY_ROWS][StripLights_ARRAY_COLS];
  27:.\Generated_Source\PSoC4/StripLights.c **** #else
  28:.\Generated_Source\PSoC4/StripLights.c **** uint8   StripLights_ledArray[StripLights_ARRAY_ROWS][StripLights_ARRAY_COLS];
  29:.\Generated_Source\PSoC4/StripLights.c **** #endif
  30:.\Generated_Source\PSoC4/StripLights.c **** 
  31:.\Generated_Source\PSoC4/StripLights.c **** uint32  StripLights_ledIndex = 0;  
  32:.\Generated_Source\PSoC4/StripLights.c **** uint32  StripLights_row = 0;
ARM GAS  C:\Users\JONSHA~1\AppData\Local\Temp\cc9CE70d.s 			page 2


  33:.\Generated_Source\PSoC4/StripLights.c **** uint32  StripLights_refreshComplete;
  34:.\Generated_Source\PSoC4/StripLights.c **** 
  35:.\Generated_Source\PSoC4/StripLights.c **** uint32  StripLights_DimMask;
  36:.\Generated_Source\PSoC4/StripLights.c **** uint32  StripLights_DimShift;
  37:.\Generated_Source\PSoC4/StripLights.c **** 
  38:.\Generated_Source\PSoC4/StripLights.c **** 
  39:.\Generated_Source\PSoC4/StripLights.c **** #if(StripLights_CHIP == StripLights_CHIP_WS2812)
  40:.\Generated_Source\PSoC4/StripLights.c **** const uint32 StripLights_CLUT[ ] = {
  41:.\Generated_Source\PSoC4/StripLights.c **** //xxBBRRGG (WS2812)
  42:.\Generated_Source\PSoC4/StripLights.c **** //     (24)   [ Index = 0 ]
  43:.\Generated_Source\PSoC4/StripLights.c **** 0x0000FFFF,  // 0 Yellow
  44:.\Generated_Source\PSoC4/StripLights.c **** 0x0000CCFF,
  45:.\Generated_Source\PSoC4/StripLights.c **** 0x000099FF,
  46:.\Generated_Source\PSoC4/StripLights.c **** 0x000033FF,
  47:.\Generated_Source\PSoC4/StripLights.c **** 0x000000FF,  // 5  Green
  48:.\Generated_Source\PSoC4/StripLights.c **** 0x006600B3,
  49:.\Generated_Source\PSoC4/StripLights.c **** 0x00990099, 
  50:.\Generated_Source\PSoC4/StripLights.c **** 0x00B30066, 
  51:.\Generated_Source\PSoC4/StripLights.c **** 0x00CC0033,  // 9 Blue
  52:.\Generated_Source\PSoC4/StripLights.c **** 0x00B31919, 
  53:.\Generated_Source\PSoC4/StripLights.c **** 0x00993300, 
  54:.\Generated_Source\PSoC4/StripLights.c **** 0x00994000, 
  55:.\Generated_Source\PSoC4/StripLights.c **** 0x00996600, 
  56:.\Generated_Source\PSoC4/StripLights.c **** 0x00999900, 
  57:.\Generated_Source\PSoC4/StripLights.c **** 0x0099CC00, 
  58:.\Generated_Source\PSoC4/StripLights.c **** 0x0066E600, 
  59:.\Generated_Source\PSoC4/StripLights.c **** 0x0000FF00, 
  60:.\Generated_Source\PSoC4/StripLights.c **** 0x0000FF33, 
  61:.\Generated_Source\PSoC4/StripLights.c **** 0x0000FF66, 
  62:.\Generated_Source\PSoC4/StripLights.c **** 0x0000FF80, 
  63:.\Generated_Source\PSoC4/StripLights.c **** 0x0000FF99,  // 20 Orange
  64:.\Generated_Source\PSoC4/StripLights.c **** 0x0000FFB2, 
  65:.\Generated_Source\PSoC4/StripLights.c **** 0x0000FFCC, 
  66:.\Generated_Source\PSoC4/StripLights.c **** 0x0000FFE5,
  67:.\Generated_Source\PSoC4/StripLights.c **** // #24
  68:.\Generated_Source\PSoC4/StripLights.c **** 
  69:.\Generated_Source\PSoC4/StripLights.c **** //xxBBRRGG  (64)  [ Index = 24 ]
  70:.\Generated_Source\PSoC4/StripLights.c **** 0x00000000, 0x00550000, 0x00AA0000, 0x00FF0000,  // 0, Black,  LtBlue, MBlue, Blue
  71:.\Generated_Source\PSoC4/StripLights.c **** 0x00000055, 0x00550055, 0x00AA0055, 0x00FF0055,  // 4, LtGreen
  72:.\Generated_Source\PSoC4/StripLights.c **** 0x000000AA, 0x005500AA, 0x00AA00AA, 0x00FF00AA,  // 8, MGreen
  73:.\Generated_Source\PSoC4/StripLights.c **** 0x000000FF, 0x005500FF, 0x00AA00FF, 0x00FF00FF,  // 12 Green
  74:.\Generated_Source\PSoC4/StripLights.c **** 
  75:.\Generated_Source\PSoC4/StripLights.c **** 0x00005500, 0x00555500, 0x00AA5500, 0x00FF5500,  // 16, LtRed
  76:.\Generated_Source\PSoC4/StripLights.c **** 0x00005555, 0x00555555, 0x00AA5555, 0x00FF5555,  // 20, LtYellow
  77:.\Generated_Source\PSoC4/StripLights.c **** 0x000055AA, 0x005555AA, 0x00AA55AA, 0x00FF55AA,  // 24, 
  78:.\Generated_Source\PSoC4/StripLights.c **** 0x000055FF, 0x005555FF, 0x00AA55FF, 0x00FF55FF,  // 28,
  79:.\Generated_Source\PSoC4/StripLights.c **** 
  80:.\Generated_Source\PSoC4/StripLights.c **** 0x0000AA00, 0x0055AA00, 0x00AAAA00, 0x00FFAA00,  // 32, MRed
  81:.\Generated_Source\PSoC4/StripLights.c **** 0x0000AA55, 0x0055AA55, 0x00AAAA55, 0x00FFAA55,  // 36, 
  82:.\Generated_Source\PSoC4/StripLights.c **** 0x0000AAAA, 0x0055AAAA, 0x00AAAAAA, 0x00FFAAAA,  // 55, 
  83:.\Generated_Source\PSoC4/StripLights.c **** 0x0000AAFF, 0x0055AAFF, 0x00AAAAFF, 0x00FFAAFF,  // 44, 
  84:.\Generated_Source\PSoC4/StripLights.c **** 
  85:.\Generated_Source\PSoC4/StripLights.c **** 0x0000FF00, 0x0055FF00, 0x00AAFF00, 0x00FFFF00,  // 48, Red, ??, ??, Magenta
  86:.\Generated_Source\PSoC4/StripLights.c **** 0x0000FF55, 0x0055FF55, 0x00AAFF55, 0x00FFFF55,  // 52,
  87:.\Generated_Source\PSoC4/StripLights.c **** 0x0000FFAA, 0x0055FFAA, 0x00AAFFAA, 0x00FFFFAA,  // 56,
  88:.\Generated_Source\PSoC4/StripLights.c **** 0x0000FFFF, 0x0055FFFF, 0x00AAFFFF, 0x00FFFFFF,  // 60, Yellow,??, ??, White
  89:.\Generated_Source\PSoC4/StripLights.c **** 
ARM GAS  C:\Users\JONSHA~1\AppData\Local\Temp\cc9CE70d.s 			page 3


  90:.\Generated_Source\PSoC4/StripLights.c **** // Misc ( 16 )  [ Index = 88 ]
  91:.\Generated_Source\PSoC4/StripLights.c **** 0x000080FF,  // SPRING_GREEN
  92:.\Generated_Source\PSoC4/StripLights.c **** 0x008000FF,  // TURQUOSE
  93:.\Generated_Source\PSoC4/StripLights.c **** 0x00FF00FF,  // CYAN
  94:.\Generated_Source\PSoC4/StripLights.c **** 0x00FF0080,  // OCEAN
  95:.\Generated_Source\PSoC4/StripLights.c **** 0x00FF8000,  // VIOLET
  96:.\Generated_Source\PSoC4/StripLights.c **** 0x0080FF00,  // RASPBERRY
  97:.\Generated_Source\PSoC4/StripLights.c **** 0x000000FF,  // GREEN
  98:.\Generated_Source\PSoC4/StripLights.c **** 0x00202020,  // DIM WHITE
  99:.\Generated_Source\PSoC4/StripLights.c **** 0x00200000,  // DIM BLUE
 100:.\Generated_Source\PSoC4/StripLights.c **** 0x10000000,  // INVISIBLE
 101:.\Generated_Source\PSoC4/StripLights.c **** 0x00000000,  // Spare
 102:.\Generated_Source\PSoC4/StripLights.c **** 0x00000000,  // Spare
 103:.\Generated_Source\PSoC4/StripLights.c **** 0x00000000,  // Spare
 104:.\Generated_Source\PSoC4/StripLights.c **** 0x00000000,  // Spare
 105:.\Generated_Source\PSoC4/StripLights.c **** 0x00000000,  // Spare
 106:.\Generated_Source\PSoC4/StripLights.c **** 0x00000000,  // Spare
 107:.\Generated_Source\PSoC4/StripLights.c **** 
 108:.\Generated_Source\PSoC4/StripLights.c **** // Temperture Color Blue to Red (16) [ Index = 104 ]
 109:.\Generated_Source\PSoC4/StripLights.c **** 0x00FF0000, 0x00F01000, 0x00E02000, 0x00D03000,
 110:.\Generated_Source\PSoC4/StripLights.c **** 0x00C04000, 0x00B05000, 0x00A06000, 0x00907000,
 111:.\Generated_Source\PSoC4/StripLights.c **** 0x00808000, 0x00709000, 0x0060A000, 0x0050B000,
 112:.\Generated_Source\PSoC4/StripLights.c **** 0x0040C000, 0x0030D000, 0x0020E000, 0x0000FF00
 113:.\Generated_Source\PSoC4/StripLights.c **** };
 114:.\Generated_Source\PSoC4/StripLights.c **** #else  //xxBBGGRR (WS2811)
 115:.\Generated_Source\PSoC4/StripLights.c **** const uint32 StripLights_CLUT[ ] = {
 116:.\Generated_Source\PSoC4/StripLights.c **** //     (24)   [ Index = 0 ]
 117:.\Generated_Source\PSoC4/StripLights.c **** 0x0000FFFF,  // 0 Yellow
 118:.\Generated_Source\PSoC4/StripLights.c **** 0x0000FFCC,
 119:.\Generated_Source\PSoC4/StripLights.c **** 0x0000FF99,
 120:.\Generated_Source\PSoC4/StripLights.c **** 0x0000FF33,
 121:.\Generated_Source\PSoC4/StripLights.c **** 0x0000FF00,  // 5  Green
 122:.\Generated_Source\PSoC4/StripLights.c **** 0x0066B300,
 123:.\Generated_Source\PSoC4/StripLights.c **** 0x00999900, 
 124:.\Generated_Source\PSoC4/StripLights.c **** 0x00B36600, 
 125:.\Generated_Source\PSoC4/StripLights.c **** 0x00CC3300,  // 9 Blue
 126:.\Generated_Source\PSoC4/StripLights.c **** 0x00B31919, 
 127:.\Generated_Source\PSoC4/StripLights.c **** 0x00990033, 
 128:.\Generated_Source\PSoC4/StripLights.c **** 0x00990040, 
 129:.\Generated_Source\PSoC4/StripLights.c **** 0x00990066, 
 130:.\Generated_Source\PSoC4/StripLights.c **** 0x00990099, 
 131:.\Generated_Source\PSoC4/StripLights.c **** 0x009900CC, 
 132:.\Generated_Source\PSoC4/StripLights.c **** 0x006600E6, 
 133:.\Generated_Source\PSoC4/StripLights.c **** 0x000000FF, 
 134:.\Generated_Source\PSoC4/StripLights.c **** 0x000033FF, 
 135:.\Generated_Source\PSoC4/StripLights.c **** 0x000066FF, 
 136:.\Generated_Source\PSoC4/StripLights.c **** 0x000080FF, 
 137:.\Generated_Source\PSoC4/StripLights.c **** 0x000099FF,  // 20 Orange
 138:.\Generated_Source\PSoC4/StripLights.c **** 0x0000B2FF, 
 139:.\Generated_Source\PSoC4/StripLights.c **** 0x0000CCFF, 
 140:.\Generated_Source\PSoC4/StripLights.c **** 0x0000E5FF,
 141:.\Generated_Source\PSoC4/StripLights.c **** // #24
 142:.\Generated_Source\PSoC4/StripLights.c **** 
 143:.\Generated_Source\PSoC4/StripLights.c **** //xxBBRRGG  (64)  [ Index = 24 ]
 144:.\Generated_Source\PSoC4/StripLights.c **** 0x00000000, 0x00550000, 0x00AA0000, 0x00FF0000,  // 0, Black,  LtBlue, MBlue, Blue
 145:.\Generated_Source\PSoC4/StripLights.c **** 0x00005500, 0x00555500, 0x00AA5500, 0x00FF5500,  // 4, LtGreen
 146:.\Generated_Source\PSoC4/StripLights.c **** 0x0000AA00, 0x0055AA00, 0x00AAAA00, 0x00FFAA00,  // 8, MGreen
ARM GAS  C:\Users\JONSHA~1\AppData\Local\Temp\cc9CE70d.s 			page 4


 147:.\Generated_Source\PSoC4/StripLights.c **** 0x0000FF00, 0x0055FF00, 0x00AAFF00, 0x00FFFF00,  // 12 Green
 148:.\Generated_Source\PSoC4/StripLights.c **** 
 149:.\Generated_Source\PSoC4/StripLights.c **** 0x00000055, 0x00550055, 0x00AA0055, 0x00FF0055,  // 16, LtRed
 150:.\Generated_Source\PSoC4/StripLights.c **** 0x00005555, 0x00555555, 0x00AA5555, 0x00FF5555,  // 20, LtYellow
 151:.\Generated_Source\PSoC4/StripLights.c **** 0x0000AA55, 0x0055AA55, 0x00AAAA55, 0x00FFAA55,  // 24, 
 152:.\Generated_Source\PSoC4/StripLights.c **** 0x0000FF55, 0x0055FF55, 0x00AAFF55, 0x00FFFF55,  // 28,
 153:.\Generated_Source\PSoC4/StripLights.c **** 
 154:.\Generated_Source\PSoC4/StripLights.c **** 0x000000AA, 0x005500AA, 0x00AA00AA, 0x00FF00AA,  // 32, MRed
 155:.\Generated_Source\PSoC4/StripLights.c **** 0x000055AA, 0x005555AA, 0x00AA55AA, 0x00FF55AA,  // 36, 
 156:.\Generated_Source\PSoC4/StripLights.c **** 0x0000AAAA, 0x0055AAAA, 0x00AAAAAA, 0x00FFAAAA,  // 55, 
 157:.\Generated_Source\PSoC4/StripLights.c **** 0x0000FFAA, 0x0055FFAA, 0x00AAFFAA, 0x00FFFFAA,  // 44, 
 158:.\Generated_Source\PSoC4/StripLights.c **** 
 159:.\Generated_Source\PSoC4/StripLights.c **** 0x000000FF, 0x005500FF, 0x00AA00FF, 0x00F00FFF,  // 48, Red, ??, ??, Magenta
 160:.\Generated_Source\PSoC4/StripLights.c **** 0x000055FF, 0x005555FF, 0x00AA55FF, 0x00FF55FF,  // 52,
 161:.\Generated_Source\PSoC4/StripLights.c **** 0x0000AAFF, 0x0055AAFF, 0x00AAAAFF, 0x00FFAAFF,  // 56,
 162:.\Generated_Source\PSoC4/StripLights.c **** 0x0000FFFF, 0x0055FFFF, 0x00AAFFFF, 0x00FFFFFF,  // 60, Yellow,??, ??, White
 163:.\Generated_Source\PSoC4/StripLights.c **** 
 164:.\Generated_Source\PSoC4/StripLights.c **** // Misc ( 16 )  [ Index = 88 ]
 165:.\Generated_Source\PSoC4/StripLights.c **** 0x0000FF80,  // SPRING_GREEN
 166:.\Generated_Source\PSoC4/StripLights.c **** 0x0080FF00,  // TURQUOSE
 167:.\Generated_Source\PSoC4/StripLights.c **** 0x00FFFF00,  // CYAN
 168:.\Generated_Source\PSoC4/StripLights.c **** 0x00FF8000,  // OCEAN
 169:.\Generated_Source\PSoC4/StripLights.c **** 0x00FF0080,  // VIOLET
 170:.\Generated_Source\PSoC4/StripLights.c **** 0x008000FF,  // RASPBERRY
 171:.\Generated_Source\PSoC4/StripLights.c **** 0x0000FF00,  // GREEN
 172:.\Generated_Source\PSoC4/StripLights.c **** 0x00202020,  // DIM WHITE
 173:.\Generated_Source\PSoC4/StripLights.c **** 0x00200000,  // DIM BLUE
 174:.\Generated_Source\PSoC4/StripLights.c **** 0x10000000,  // INVISIBLE
 175:.\Generated_Source\PSoC4/StripLights.c **** 0x00000000,  // Spare
 176:.\Generated_Source\PSoC4/StripLights.c **** 0x00000000,  // Spare
 177:.\Generated_Source\PSoC4/StripLights.c **** 0x00000000,  // Spare
 178:.\Generated_Source\PSoC4/StripLights.c **** 0x00000000,  // Spare
 179:.\Generated_Source\PSoC4/StripLights.c **** 0x00000000,  // Spare
 180:.\Generated_Source\PSoC4/StripLights.c **** 0x00000000,  // Spare
 181:.\Generated_Source\PSoC4/StripLights.c **** 
 182:.\Generated_Source\PSoC4/StripLights.c **** // Temperture Color Blue to Red (16) [ Index = 104 ]
 183:.\Generated_Source\PSoC4/StripLights.c **** 0x00FF0000, 0x00F00010, 0x00E00020, 0x00D00030,
 184:.\Generated_Source\PSoC4/StripLights.c **** 0x00C00040, 0x00B00050, 0x00A00060, 0x00900070,
 185:.\Generated_Source\PSoC4/StripLights.c **** 0x00800080, 0x00700090, 0x006000A0, 0x005000B0,
 186:.\Generated_Source\PSoC4/StripLights.c **** 0x004000C0, 0x003000D0, 0x002000E0, 0x000000FF
 187:.\Generated_Source\PSoC4/StripLights.c **** };
 188:.\Generated_Source\PSoC4/StripLights.c **** #endif
 189:.\Generated_Source\PSoC4/StripLights.c **** 
 190:.\Generated_Source\PSoC4/StripLights.c **** 
 191:.\Generated_Source\PSoC4/StripLights.c **** 
 192:.\Generated_Source\PSoC4/StripLights.c **** /*******************************************************************************
 193:.\Generated_Source\PSoC4/StripLights.c **** * Function Name: StripLights_Start
 194:.\Generated_Source\PSoC4/StripLights.c **** ********************************************************************************
 195:.\Generated_Source\PSoC4/StripLights.c **** * Summary:
 196:.\Generated_Source\PSoC4/StripLights.c **** *  Initialize the hardware. 
 197:.\Generated_Source\PSoC4/StripLights.c **** *
 198:.\Generated_Source\PSoC4/StripLights.c **** * Parameters:  
 199:.\Generated_Source\PSoC4/StripLights.c **** *  void  
 200:.\Generated_Source\PSoC4/StripLights.c **** *
 201:.\Generated_Source\PSoC4/StripLights.c **** * Return: 
 202:.\Generated_Source\PSoC4/StripLights.c **** *  void
 203:.\Generated_Source\PSoC4/StripLights.c **** *
ARM GAS  C:\Users\JONSHA~1\AppData\Local\Temp\cc9CE70d.s 			page 5


 204:.\Generated_Source\PSoC4/StripLights.c **** *******************************************************************************/
 205:.\Generated_Source\PSoC4/StripLights.c **** void StripLights_Start()
 206:.\Generated_Source\PSoC4/StripLights.c **** {
 207:.\Generated_Source\PSoC4/StripLights.c ****     extern uint8 StripLights_initvar;
 208:.\Generated_Source\PSoC4/StripLights.c ****     extern uint32 StripLights_refreshComplete;
 209:.\Generated_Source\PSoC4/StripLights.c **** 
 210:.\Generated_Source\PSoC4/StripLights.c ****     StripLights_ACTL0_REG = StripLights_DISABLE_FIFO;
 211:.\Generated_Source\PSoC4/StripLights.c ****     
 212:.\Generated_Source\PSoC4/StripLights.c ****     StripLights_Period   = StripLights_PERIOD-1;
 213:.\Generated_Source\PSoC4/StripLights.c ****     StripLights_Compare0 = StripLights_DATA_ZERO;
 214:.\Generated_Source\PSoC4/StripLights.c ****     StripLights_Compare1 = StripLights_DATA_ONE;
 215:.\Generated_Source\PSoC4/StripLights.c ****     
 216:.\Generated_Source\PSoC4/StripLights.c ****     StripLights_CONTROL = StripLights_ENABLE;
 217:.\Generated_Source\PSoC4/StripLights.c ****     StripLights_MemClear(StripLights_OFF);
 218:.\Generated_Source\PSoC4/StripLights.c ****     StripLights_CONTROL = StripLights_DISABLE;
 219:.\Generated_Source\PSoC4/StripLights.c ****     
 220:.\Generated_Source\PSoC4/StripLights.c ****     StripLights_SetFont( StripLights_FONT_5X7);
 221:.\Generated_Source\PSoC4/StripLights.c ****     
 222:.\Generated_Source\PSoC4/StripLights.c ****     /* Set no dimming, full brightness */
 223:.\Generated_Source\PSoC4/StripLights.c ****     StripLights_Dim(0); 
 224:.\Generated_Source\PSoC4/StripLights.c **** 
 225:.\Generated_Source\PSoC4/StripLights.c ****     
 226:.\Generated_Source\PSoC4/StripLights.c ****     if(StripLights_initvar == 0)
 227:.\Generated_Source\PSoC4/StripLights.c ****     {
 228:.\Generated_Source\PSoC4/StripLights.c **** 
 229:.\Generated_Source\PSoC4/StripLights.c ****         StripLights_initvar = 1;
 230:.\Generated_Source\PSoC4/StripLights.c ****  
 231:.\Generated_Source\PSoC4/StripLights.c ****          /* Start and set interrupt vector */
 232:.\Generated_Source\PSoC4/StripLights.c **** 
 233:.\Generated_Source\PSoC4/StripLights.c **** #if(StripLights_TRANSFER == StripLights_TRANSFER_ISR)
 234:.\Generated_Source\PSoC4/StripLights.c ****        {
 235:.\Generated_Source\PSoC4/StripLights.c ****            StripLights_cisr_StartEx(StripLights_CISR);
 236:.\Generated_Source\PSoC4/StripLights.c **** 		   StripLights_fisr_StartEx(StripLights_FISR);
 237:.\Generated_Source\PSoC4/StripLights.c ****        }
 238:.\Generated_Source\PSoC4/StripLights.c **** #endif       
 239:.\Generated_Source\PSoC4/StripLights.c ****        if(StripLights_TRANSFER == StripLights_TRANSFER_FIRMWARE)
 240:.\Generated_Source\PSoC4/StripLights.c ****        {
 241:.\Generated_Source\PSoC4/StripLights.c ****            StripLights_CONTROL = StripLights_ENABLE;    
 242:.\Generated_Source\PSoC4/StripLights.c ****        }
 243:.\Generated_Source\PSoC4/StripLights.c ****     }
 244:.\Generated_Source\PSoC4/StripLights.c ****     StripLights_refreshComplete = 1;
 245:.\Generated_Source\PSoC4/StripLights.c **** }
 246:.\Generated_Source\PSoC4/StripLights.c **** 
 247:.\Generated_Source\PSoC4/StripLights.c **** 
 248:.\Generated_Source\PSoC4/StripLights.c **** /*******************************************************************************
 249:.\Generated_Source\PSoC4/StripLights.c **** * Function Name: StripLights_Trigger
 250:.\Generated_Source\PSoC4/StripLights.c **** ********************************************************************************
 251:.\Generated_Source\PSoC4/StripLights.c **** * Summary:
 252:.\Generated_Source\PSoC4/StripLights.c **** *   Update the LEDs with graphics memory.
 253:.\Generated_Source\PSoC4/StripLights.c **** *
 254:.\Generated_Source\PSoC4/StripLights.c **** * Parameters:  
 255:.\Generated_Source\PSoC4/StripLights.c **** *  void  
 256:.\Generated_Source\PSoC4/StripLights.c **** *
 257:.\Generated_Source\PSoC4/StripLights.c **** * Return: 
 258:.\Generated_Source\PSoC4/StripLights.c **** *  void
 259:.\Generated_Source\PSoC4/StripLights.c **** *
 260:.\Generated_Source\PSoC4/StripLights.c **** *******************************************************************************/
ARM GAS  C:\Users\JONSHA~1\AppData\Local\Temp\cc9CE70d.s 			page 6


 261:.\Generated_Source\PSoC4/StripLights.c **** void StripLights_Trigger(uint32 rst)
 262:.\Generated_Source\PSoC4/StripLights.c **** {
 263:.\Generated_Source\PSoC4/StripLights.c ****     uint32 color;
 264:.\Generated_Source\PSoC4/StripLights.c ****     
 265:.\Generated_Source\PSoC4/StripLights.c ****     if(rst) 
 266:.\Generated_Source\PSoC4/StripLights.c ****     {
 267:.\Generated_Source\PSoC4/StripLights.c ****         StripLights_row = 0;  /* Reset the row */
 268:.\Generated_Source\PSoC4/StripLights.c ****         StripLights_Channel = 0;
 269:.\Generated_Source\PSoC4/StripLights.c ****     }
 270:.\Generated_Source\PSoC4/StripLights.c ****     
 271:.\Generated_Source\PSoC4/StripLights.c ****     #if(StripLights_MEMORY_TYPE == StripLights_MEMORY_RGB)
 272:.\Generated_Source\PSoC4/StripLights.c ****        color = StripLights_ledArray[StripLights_row][0];
 273:.\Generated_Source\PSoC4/StripLights.c ****     #else  /* Else use lookup table */
 274:.\Generated_Source\PSoC4/StripLights.c ****        color = StripLights_CLUT[ (StripLights_ledArray[StripLights_row][0]) ];
 275:.\Generated_Source\PSoC4/StripLights.c ****     #endif
 276:.\Generated_Source\PSoC4/StripLights.c ****     
 277:.\Generated_Source\PSoC4/StripLights.c ****      color = (color >> StripLights_DimShift) & StripLights_DimMask;
 278:.\Generated_Source\PSoC4/StripLights.c ****      
 279:.\Generated_Source\PSoC4/StripLights.c ****     StripLights_DATA = (uint8)(color & 0x000000FF);  // Write Red
 280:.\Generated_Source\PSoC4/StripLights.c ****     color = color >> 8;
 281:.\Generated_Source\PSoC4/StripLights.c ****     StripLights_DATA = (uint8)(color & 0x000000FF);  // Write green
 282:.\Generated_Source\PSoC4/StripLights.c ****     color = color >> 8;
 283:.\Generated_Source\PSoC4/StripLights.c ****     StripLights_DATA = (uint8)(color & 0x000000FF);  // Write green
 284:.\Generated_Source\PSoC4/StripLights.c ****     
 285:.\Generated_Source\PSoC4/StripLights.c ****     StripLights_ledIndex = 1;
 286:.\Generated_Source\PSoC4/StripLights.c ****  //   StripLights_CONTROL = StripLights_ENABLE | StripLights_FIFO_IRQ_EN; 
 287:.\Generated_Source\PSoC4/StripLights.c **** 	
 288:.\Generated_Source\PSoC4/StripLights.c **** 	StripLights_CONTROL = StripLights_ENABLE | StripLights_XFRCMPT_IRQ_EN | StripLights_FIFO_IRQ_EN; 
 289:.\Generated_Source\PSoC4/StripLights.c ****     StripLights_refreshComplete = 0;
 290:.\Generated_Source\PSoC4/StripLights.c **** }
 291:.\Generated_Source\PSoC4/StripLights.c **** 
 292:.\Generated_Source\PSoC4/StripLights.c **** /*******************************************************************************
 293:.\Generated_Source\PSoC4/StripLights.c **** * Function Name: StripLights_Ready
 294:.\Generated_Source\PSoC4/StripLights.c **** ********************************************************************************
 295:.\Generated_Source\PSoC4/StripLights.c **** * Summary:
 296:.\Generated_Source\PSoC4/StripLights.c **** *  Checks to see if transfer is complete.
 297:.\Generated_Source\PSoC4/StripLights.c **** *
 298:.\Generated_Source\PSoC4/StripLights.c **** * Parameters:  
 299:.\Generated_Source\PSoC4/StripLights.c **** *  none  
 300:.\Generated_Source\PSoC4/StripLights.c **** *
 301:.\Generated_Source\PSoC4/StripLights.c **** * Return: 
 302:.\Generated_Source\PSoC4/StripLights.c **** *  Zero if not complete, non-zero if transfer complete.
 303:.\Generated_Source\PSoC4/StripLights.c **** *
 304:.\Generated_Source\PSoC4/StripLights.c **** *******************************************************************************/
 305:.\Generated_Source\PSoC4/StripLights.c **** uint32 StripLights_Ready(void)
 306:.\Generated_Source\PSoC4/StripLights.c **** {
 307:.\Generated_Source\PSoC4/StripLights.c ****     if(StripLights_refreshComplete )
 308:.\Generated_Source\PSoC4/StripLights.c ****     {
 309:.\Generated_Source\PSoC4/StripLights.c ****         StripLights_CONTROL = StripLights_DISABLE;
 310:.\Generated_Source\PSoC4/StripLights.c ****         return((uint32)1);
 311:.\Generated_Source\PSoC4/StripLights.c ****     }
 312:.\Generated_Source\PSoC4/StripLights.c ****     else
 313:.\Generated_Source\PSoC4/StripLights.c ****     {
 314:.\Generated_Source\PSoC4/StripLights.c ****          return((uint32)0);
 315:.\Generated_Source\PSoC4/StripLights.c ****     }
 316:.\Generated_Source\PSoC4/StripLights.c **** }
 317:.\Generated_Source\PSoC4/StripLights.c **** 
ARM GAS  C:\Users\JONSHA~1\AppData\Local\Temp\cc9CE70d.s 			page 7


 318:.\Generated_Source\PSoC4/StripLights.c **** 
 319:.\Generated_Source\PSoC4/StripLights.c **** /*******************************************************************************
 320:.\Generated_Source\PSoC4/StripLights.c **** * Function Name: StripLights_Stop
 321:.\Generated_Source\PSoC4/StripLights.c **** ********************************************************************************
 322:.\Generated_Source\PSoC4/StripLights.c **** * Summary:
 323:.\Generated_Source\PSoC4/StripLights.c **** *  Stop all transfers.
 324:.\Generated_Source\PSoC4/StripLights.c **** *
 325:.\Generated_Source\PSoC4/StripLights.c **** * Parameters:  
 326:.\Generated_Source\PSoC4/StripLights.c **** *  None 
 327:.\Generated_Source\PSoC4/StripLights.c **** *
 328:.\Generated_Source\PSoC4/StripLights.c **** * Return: 
 329:.\Generated_Source\PSoC4/StripLights.c **** *  void
 330:.\Generated_Source\PSoC4/StripLights.c **** *
 331:.\Generated_Source\PSoC4/StripLights.c **** *******************************************************************************/
 332:.\Generated_Source\PSoC4/StripLights.c **** void StripLights_Stop()
 333:.\Generated_Source\PSoC4/StripLights.c **** {
 334:.\Generated_Source\PSoC4/StripLights.c **** 
 335:.\Generated_Source\PSoC4/StripLights.c ****     StripLights_CONTROL = StripLights_DISABLE;
 336:.\Generated_Source\PSoC4/StripLights.c **** }
 337:.\Generated_Source\PSoC4/StripLights.c **** 
 338:.\Generated_Source\PSoC4/StripLights.c **** 
 339:.\Generated_Source\PSoC4/StripLights.c **** /*******************************************************************************
 340:.\Generated_Source\PSoC4/StripLights.c **** * Function Name: StripLights_ColorInc
 341:.\Generated_Source\PSoC4/StripLights.c **** ********************************************************************************
 342:.\Generated_Source\PSoC4/StripLights.c **** * Summary:
 343:.\Generated_Source\PSoC4/StripLights.c **** *  Increment color throught the color lookup table.
 344:.\Generated_Source\PSoC4/StripLights.c **** *
 345:.\Generated_Source\PSoC4/StripLights.c **** * Parameters:  
 346:.\Generated_Source\PSoC4/StripLights.c **** *  uint32 incValue: Increment through color table by incValue. 
 347:.\Generated_Source\PSoC4/StripLights.c **** *
 348:.\Generated_Source\PSoC4/StripLights.c **** * Return: Color at next location.
 349:.\Generated_Source\PSoC4/StripLights.c **** *  
 350:.\Generated_Source\PSoC4/StripLights.c **** *
 351:.\Generated_Source\PSoC4/StripLights.c **** *******************************************************************************/
 352:.\Generated_Source\PSoC4/StripLights.c **** uint32 StripLights_ColorInc(uint32 incValue)
 353:.\Generated_Source\PSoC4/StripLights.c **** {
 354:.\Generated_Source\PSoC4/StripLights.c ****     uint32 color;
 355:.\Generated_Source\PSoC4/StripLights.c ****     extern const uint32 StripLights_CLUT[];
 356:.\Generated_Source\PSoC4/StripLights.c ****     static uint32 colorIndex = 0;
 357:.\Generated_Source\PSoC4/StripLights.c ****     
 358:.\Generated_Source\PSoC4/StripLights.c ****     colorIndex += incValue;
 359:.\Generated_Source\PSoC4/StripLights.c ****     colorIndex = colorIndex % StripLights_COLOR_WHEEL_SIZE;
 360:.\Generated_Source\PSoC4/StripLights.c **** 
 361:.\Generated_Source\PSoC4/StripLights.c ****     #if(StripLights_MEMORY_TYPE == StripLights_MEMORY_RGB)
 362:.\Generated_Source\PSoC4/StripLights.c ****        color = StripLights_CLUT[ colorIndex ];
 363:.\Generated_Source\PSoC4/StripLights.c ****     #else
 364:.\Generated_Source\PSoC4/StripLights.c ****         color = colorIndex;
 365:.\Generated_Source\PSoC4/StripLights.c ****     #endif
 366:.\Generated_Source\PSoC4/StripLights.c **** 
 367:.\Generated_Source\PSoC4/StripLights.c **** 
 368:.\Generated_Source\PSoC4/StripLights.c ****     return(color);
 369:.\Generated_Source\PSoC4/StripLights.c **** }
 370:.\Generated_Source\PSoC4/StripLights.c **** /*****************************************************************************
 371:.\Generated_Source\PSoC4/StripLights.c **** * Function Name: StripLights_FISR
 372:.\Generated_Source\PSoC4/StripLights.c **** ******************************************************************************
 373:.\Generated_Source\PSoC4/StripLights.c **** *
 374:.\Generated_Source\PSoC4/StripLights.c **** * Summary:
ARM GAS  C:\Users\JONSHA~1\AppData\Local\Temp\cc9CE70d.s 			page 8


 375:.\Generated_Source\PSoC4/StripLights.c **** *  Interrupt service handler for data transfer for each LED 
 376:.\Generated_Source\PSoC4/StripLights.c **** *
 377:.\Generated_Source\PSoC4/StripLights.c **** * Parameters:  
 378:.\Generated_Source\PSoC4/StripLights.c **** *  void
 379:.\Generated_Source\PSoC4/StripLights.c **** *
 380:.\Generated_Source\PSoC4/StripLights.c **** * Return: 
 381:.\Generated_Source\PSoC4/StripLights.c **** *  void 
 382:.\Generated_Source\PSoC4/StripLights.c **** *
 383:.\Generated_Source\PSoC4/StripLights.c **** * Reentrant: 
 384:.\Generated_Source\PSoC4/StripLights.c **** *  No
 385:.\Generated_Source\PSoC4/StripLights.c **** *
 386:.\Generated_Source\PSoC4/StripLights.c **** *****************************************************************************/
 387:.\Generated_Source\PSoC4/StripLights.c **** CY_ISR( StripLights_FISR)
 388:.\Generated_Source\PSoC4/StripLights.c **** {
  26              		.loc 1 388 0
  27              		.cfi_startproc
 389:.\Generated_Source\PSoC4/StripLights.c ****     extern uint32  StripLights_DimMask;
 390:.\Generated_Source\PSoC4/StripLights.c ****     extern uint32  StripLights_DimShift;
 391:.\Generated_Source\PSoC4/StripLights.c ****     uint32 static color;
 392:.\Generated_Source\PSoC4/StripLights.c **** 
 393:.\Generated_Source\PSoC4/StripLights.c ****     if(StripLights_ledIndex < StripLights_ARRAY_COLS)
  28              		.loc 1 393 0
  29 0000 124B     		ldr	r3, .L4
  30 0002 1B68     		ldr	r3, [r3]
  31 0004 EF2B     		cmp	r3, #239
  32 0006 1DD8     		bhi	.L2
 394:.\Generated_Source\PSoC4/StripLights.c ****     {
 395:.\Generated_Source\PSoC4/StripLights.c ****         #if(StripLights_MEMORY_TYPE == StripLights_MEMORY_RGB)
 396:.\Generated_Source\PSoC4/StripLights.c ****             color = StripLights_ledArray[StripLights_row][StripLights_ledIndex++];
 397:.\Generated_Source\PSoC4/StripLights.c ****         #else  /* Else use lookup table */
 398:.\Generated_Source\PSoC4/StripLights.c ****             color = StripLights_CLUT[ (StripLights_ledArray[StripLights_row][StripLights_ledIndex++
  33              		.loc 1 398 0
  34 0008 1049     		ldr	r1, .L4
  35 000a 4868     		ldr	r0, [r1, #4]
  36 000c 5A1C     		add	r2, r3, #1
  37 000e 0A60     		str	r2, [r1]
  38 0010 0201     		lsl	r2, r0, #4
  39 0012 121A     		sub	r2, r2, r0
  40 0014 1201     		lsl	r2, r2, #4
  41 0016 D318     		add	r3, r2, r3
  42 0018 0D4A     		ldr	r2, .L4+4
  43 001a 9B5C     		ldrb	r3, [r3, r2]
  44 001c 9B00     		lsl	r3, r3, #2
  45 001e 0D4A     		ldr	r2, .L4+8
  46 0020 9B58     		ldr	r3, [r3, r2]
 399:.\Generated_Source\PSoC4/StripLights.c ****         #endif
 400:.\Generated_Source\PSoC4/StripLights.c **** 
 401:.\Generated_Source\PSoC4/StripLights.c ****         color = (color >> StripLights_DimShift) & StripLights_DimMask;  
  47              		.loc 1 401 0
  48 0022 0D4A     		ldr	r2, .L4+12
  49 0024 1268     		ldr	r2, [r2]
  50 0026 D340     		lsr	r3, r3, r2
  51 0028 0C4A     		ldr	r2, .L4+16
  52 002a 1268     		ldr	r2, [r2]
  53 002c 1340     		and	r3, r2
 402:.\Generated_Source\PSoC4/StripLights.c **** 
 403:.\Generated_Source\PSoC4/StripLights.c ****         StripLights_DATA = (uint8)(color & 0x000000FF);  // Write Green
ARM GAS  C:\Users\JONSHA~1\AppData\Local\Temp\cc9CE70d.s 			page 9


  54              		.loc 1 403 0
  55 002e D8B2     		uxtb	r0, r3
  56 0030 0B4A     		ldr	r2, .L4+20
  57 0032 1070     		strb	r0, [r2]
 404:.\Generated_Source\PSoC4/StripLights.c ****         color = color >> 8;
  58              		.loc 1 404 0
  59 0034 180A     		lsr	r0, r3, #8
 405:.\Generated_Source\PSoC4/StripLights.c ****         StripLights_DATA = (uint8)(color & 0x000000FF);  // Write Red
  60              		.loc 1 405 0
  61 0036 C0B2     		uxtb	r0, r0
  62 0038 1070     		strb	r0, [r2]
 406:.\Generated_Source\PSoC4/StripLights.c ****         color = color >> 8;
  63              		.loc 1 406 0
  64 003a 1B0C     		lsr	r3, r3, #16
  65 003c 8B60     		str	r3, [r1, #8]
 407:.\Generated_Source\PSoC4/StripLights.c ****         StripLights_DATA = (uint8)(color & 0x000000FF);  // Write Blue
  66              		.loc 1 407 0
  67 003e DBB2     		uxtb	r3, r3
  68 0040 1370     		strb	r3, [r2]
  69 0042 02E0     		b	.L1
  70              	.L2:
 408:.\Generated_Source\PSoC4/StripLights.c ****     }
 409:.\Generated_Source\PSoC4/StripLights.c ****     else 
 410:.\Generated_Source\PSoC4/StripLights.c ****     {
 411:.\Generated_Source\PSoC4/StripLights.c ****          StripLights_CONTROL = StripLights_ENABLE | StripLights_XFRCMPT_IRQ_EN; 
  71              		.loc 1 411 0
  72 0044 1122     		mov	r2, #17
  73 0046 074B     		ldr	r3, .L4+24
  74 0048 1A70     		strb	r2, [r3]
  75              	.L1:
 412:.\Generated_Source\PSoC4/StripLights.c ****     }
 413:.\Generated_Source\PSoC4/StripLights.c **** 
 414:.\Generated_Source\PSoC4/StripLights.c **** }
  76              		.loc 1 414 0
  77              		@ sp needed
  78 004a 7047     		bx	lr
  79              	.L5:
  80              		.align	2
  81              	.L4:
  82 004c 00000000 		.word	.LANCHOR0
  83 0050 00000000 		.word	StripLights_ledArray
  84 0054 00000000 		.word	.LANCHOR1
  85 0058 00000000 		.word	StripLights_DimShift
  86 005c 00000000 		.word	StripLights_DimMask
  87 0060 42000F40 		.word	1074724930
  88 0064 71000F40 		.word	1074724977
  89              		.cfi_endproc
  90              	.LFE39:
  91              		.size	StripLights_FISR, .-StripLights_FISR
  92              		.section	.text.StripLights_CISR,"ax",%progbits
  93              		.align	2
  94              		.global	StripLights_CISR
  95              		.code	16
  96              		.thumb_func
  97              		.type	StripLights_CISR, %function
  98              	StripLights_CISR:
  99              	.LFB40:
ARM GAS  C:\Users\JONSHA~1\AppData\Local\Temp\cc9CE70d.s 			page 10


 415:.\Generated_Source\PSoC4/StripLights.c **** 
 416:.\Generated_Source\PSoC4/StripLights.c **** /*****************************************************************************
 417:.\Generated_Source\PSoC4/StripLights.c **** * Function Name: StripLights_CISR
 418:.\Generated_Source\PSoC4/StripLights.c **** ******************************************************************************
 419:.\Generated_Source\PSoC4/StripLights.c **** *
 420:.\Generated_Source\PSoC4/StripLights.c **** * Summary:
 421:.\Generated_Source\PSoC4/StripLights.c **** *  Interrupt service handler after each row is complete.
 422:.\Generated_Source\PSoC4/StripLights.c **** *
 423:.\Generated_Source\PSoC4/StripLights.c **** * Parameters:  
 424:.\Generated_Source\PSoC4/StripLights.c **** *  void
 425:.\Generated_Source\PSoC4/StripLights.c **** *
 426:.\Generated_Source\PSoC4/StripLights.c **** * Return: 
 427:.\Generated_Source\PSoC4/StripLights.c **** *  void 
 428:.\Generated_Source\PSoC4/StripLights.c **** *
 429:.\Generated_Source\PSoC4/StripLights.c **** * Reentrant: 
 430:.\Generated_Source\PSoC4/StripLights.c **** *  No
 431:.\Generated_Source\PSoC4/StripLights.c **** *
 432:.\Generated_Source\PSoC4/StripLights.c **** *****************************************************************************/
 433:.\Generated_Source\PSoC4/StripLights.c **** CY_ISR( StripLights_CISR)
 434:.\Generated_Source\PSoC4/StripLights.c **** {
 100              		.loc 1 434 0
 101              		.cfi_startproc
 435:.\Generated_Source\PSoC4/StripLights.c ****     extern uint32  StripLights_DimMask;
 436:.\Generated_Source\PSoC4/StripLights.c ****     extern uint32  StripLights_DimShift;
 437:.\Generated_Source\PSoC4/StripLights.c ****     uint32 static color;
 438:.\Generated_Source\PSoC4/StripLights.c ****     extern uint32 StripLights_refreshComplete;
 439:.\Generated_Source\PSoC4/StripLights.c **** 
 440:.\Generated_Source\PSoC4/StripLights.c **** 	StripLights_CONTROL = StripLights_ENABLE |StripLights_NEXT_ROW;
 102              		.loc 1 440 0
 103 0000 2122     		mov	r2, #33
 104 0002 174B     		ldr	r3, .L9
 105 0004 1A70     		strb	r2, [r3]
 441:.\Generated_Source\PSoC4/StripLights.c ****     StripLights_row++;
 106              		.loc 1 441 0
 107 0006 174A     		ldr	r2, .L9+4
 108 0008 5368     		ldr	r3, [r2, #4]
 109 000a 0133     		add	r3, r3, #1
 110 000c 5360     		str	r3, [r2, #4]
 442:.\Generated_Source\PSoC4/StripLights.c ****     if( StripLights_row < StripLights_ARRAY_ROWS)  /* More Rows to do  */
 111              		.loc 1 442 0
 112 000e 002B     		cmp	r3, #0
 113 0010 22D1     		bne	.L7
 443:.\Generated_Source\PSoC4/StripLights.c ****     {
 444:.\Generated_Source\PSoC4/StripLights.c ****         StripLights_Channel = StripLights_row;  
 114              		.loc 1 444 0
 115 0012 DBB2     		uxtb	r3, r3
 116 0014 144A     		ldr	r2, .L9+8
 117 0016 1370     		strb	r3, [r2]
 445:.\Generated_Source\PSoC4/StripLights.c **** 
 446:.\Generated_Source\PSoC4/StripLights.c **** 		#if(StripLights_MEMORY_TYPE == StripLights_MEMORY_RGB)
 447:.\Generated_Source\PSoC4/StripLights.c ****              color = StripLights_ledArray[StripLights_row][0];
 448:.\Generated_Source\PSoC4/StripLights.c ****         #else  /* Else use lookup table */
 449:.\Generated_Source\PSoC4/StripLights.c ****              color = StripLights_CLUT[ (StripLights_ledArray[StripLights_row][0]) ];
 118              		.loc 1 449 0
 119 0018 124A     		ldr	r2, .L9+4
 120 001a 5168     		ldr	r1, [r2, #4]
 121 001c 0B01     		lsl	r3, r1, #4
ARM GAS  C:\Users\JONSHA~1\AppData\Local\Temp\cc9CE70d.s 			page 11


 122 001e 5B1A     		sub	r3, r3, r1
 123 0020 1B01     		lsl	r3, r3, #4
 124 0022 1249     		ldr	r1, .L9+12
 125 0024 5B5C     		ldrb	r3, [r3, r1]
 126 0026 9B00     		lsl	r3, r3, #2
 127 0028 1149     		ldr	r1, .L9+16
 128 002a 5B58     		ldr	r3, [r3, r1]
 450:.\Generated_Source\PSoC4/StripLights.c ****         #endif
 451:.\Generated_Source\PSoC4/StripLights.c **** 
 452:.\Generated_Source\PSoC4/StripLights.c ****         color = (color >> StripLights_DimShift) & StripLights_DimMask;
 129              		.loc 1 452 0
 130 002c 1149     		ldr	r1, .L9+20
 131 002e 0968     		ldr	r1, [r1]
 132 0030 CB40     		lsr	r3, r3, r1
 133 0032 1149     		ldr	r1, .L9+24
 134 0034 0968     		ldr	r1, [r1]
 135 0036 0B40     		and	r3, r1
 453:.\Generated_Source\PSoC4/StripLights.c ****  
 454:.\Generated_Source\PSoC4/StripLights.c ****         StripLights_DATA = (uint8)(color & 0x000000FF);  /* Write Red   */
 136              		.loc 1 454 0
 137 0038 D8B2     		uxtb	r0, r3
 138 003a 1049     		ldr	r1, .L9+28
 139 003c 0870     		strb	r0, [r1]
 455:.\Generated_Source\PSoC4/StripLights.c ****         color = color >> 8;
 140              		.loc 1 455 0
 141 003e 180A     		lsr	r0, r3, #8
 456:.\Generated_Source\PSoC4/StripLights.c ****         StripLights_DATA = (uint8)(color & 0x000000FF);  /* Write green */
 142              		.loc 1 456 0
 143 0040 C0B2     		uxtb	r0, r0
 144 0042 0870     		strb	r0, [r1]
 457:.\Generated_Source\PSoC4/StripLights.c ****         color = color >> 8;
 145              		.loc 1 457 0
 146 0044 1B0C     		lsr	r3, r3, #16
 147 0046 D360     		str	r3, [r2, #12]
 458:.\Generated_Source\PSoC4/StripLights.c ****         StripLights_DATA = (uint8)(color & 0x000000FF);  /* Write green */
 148              		.loc 1 458 0
 149 0048 DBB2     		uxtb	r3, r3
 150 004a 0B70     		strb	r3, [r1]
 459:.\Generated_Source\PSoC4/StripLights.c **** 
 460:.\Generated_Source\PSoC4/StripLights.c ****         StripLights_ledIndex = 1;
 151              		.loc 1 460 0
 152 004c 0123     		mov	r3, #1
 153 004e 1360     		str	r3, [r2]
 461:.\Generated_Source\PSoC4/StripLights.c **** 		StripLights_CONTROL = StripLights_ENABLE | StripLights_FIFO_IRQ_EN; 
 154              		.loc 1 461 0
 155 0050 0922     		mov	r2, #9
 156 0052 034B     		ldr	r3, .L9
 157 0054 1A70     		strb	r2, [r3]
 158 0056 02E0     		b	.L6
 159              	.L7:
 462:.\Generated_Source\PSoC4/StripLights.c **** 		
 463:.\Generated_Source\PSoC4/StripLights.c ****     }
 464:.\Generated_Source\PSoC4/StripLights.c ****     else
 465:.\Generated_Source\PSoC4/StripLights.c ****     {
 466:.\Generated_Source\PSoC4/StripLights.c ****         StripLights_refreshComplete = 1u;
 160              		.loc 1 466 0
 161 0058 0122     		mov	r2, #1
ARM GAS  C:\Users\JONSHA~1\AppData\Local\Temp\cc9CE70d.s 			page 12


 162 005a 094B     		ldr	r3, .L9+32
 163 005c 1A60     		str	r2, [r3]
 164              	.L6:
 467:.\Generated_Source\PSoC4/StripLights.c ****     }
 468:.\Generated_Source\PSoC4/StripLights.c ****   
 469:.\Generated_Source\PSoC4/StripLights.c **** }
 165              		.loc 1 469 0
 166              		@ sp needed
 167 005e 7047     		bx	lr
 168              	.L10:
 169              		.align	2
 170              	.L9:
 171 0060 71000F40 		.word	1074724977
 172 0064 00000000 		.word	.LANCHOR0
 173 0068 70000F40 		.word	1074724976
 174 006c 00000000 		.word	StripLights_ledArray
 175 0070 00000000 		.word	.LANCHOR1
 176 0074 00000000 		.word	StripLights_DimShift
 177 0078 00000000 		.word	StripLights_DimMask
 178 007c 42000F40 		.word	1074724930
 179 0080 00000000 		.word	StripLights_refreshComplete
 180              		.cfi_endproc
 181              	.LFE40:
 182              		.size	StripLights_CISR, .-StripLights_CISR
 183              		.section	.text.StripLights_Trigger,"ax",%progbits
 184              		.align	2
 185              		.global	StripLights_Trigger
 186              		.code	16
 187              		.thumb_func
 188              		.type	StripLights_Trigger, %function
 189              	StripLights_Trigger:
 190              	.LFB35:
 262:.\Generated_Source\PSoC4/StripLights.c ****     uint32 color;
 191              		.loc 1 262 0
 192              		.cfi_startproc
 193              	.LVL0:
 265:.\Generated_Source\PSoC4/StripLights.c ****     {
 194              		.loc 1 265 0
 195 0000 0028     		cmp	r0, #0
 196 0002 04D0     		beq	.L12
 267:.\Generated_Source\PSoC4/StripLights.c ****         StripLights_Channel = 0;
 197              		.loc 1 267 0
 198 0004 0023     		mov	r3, #0
 199 0006 134A     		ldr	r2, .L13
 200 0008 5360     		str	r3, [r2, #4]
 268:.\Generated_Source\PSoC4/StripLights.c ****     }
 201              		.loc 1 268 0
 202 000a 134A     		ldr	r2, .L13+4
 203 000c 1370     		strb	r3, [r2]
 204              	.L12:
 274:.\Generated_Source\PSoC4/StripLights.c ****     #endif
 205              		.loc 1 274 0
 206 000e 1148     		ldr	r0, .L13
 207              	.LVL1:
 208 0010 4268     		ldr	r2, [r0, #4]
 209 0012 1301     		lsl	r3, r2, #4
 210 0014 9B1A     		sub	r3, r3, r2
ARM GAS  C:\Users\JONSHA~1\AppData\Local\Temp\cc9CE70d.s 			page 13


 211 0016 1B01     		lsl	r3, r3, #4
 212 0018 104A     		ldr	r2, .L13+8
 213 001a 9B5C     		ldrb	r3, [r3, r2]
 214 001c 9B00     		lsl	r3, r3, #2
 215 001e 104A     		ldr	r2, .L13+12
 216 0020 9B58     		ldr	r3, [r3, r2]
 217              	.LVL2:
 277:.\Generated_Source\PSoC4/StripLights.c ****      
 218              		.loc 1 277 0
 219 0022 104A     		ldr	r2, .L13+16
 220 0024 1268     		ldr	r2, [r2]
 221 0026 D340     		lsr	r3, r3, r2
 222              	.LVL3:
 223 0028 0F4A     		ldr	r2, .L13+20
 224 002a 1268     		ldr	r2, [r2]
 225 002c 1340     		and	r3, r2
 226              	.LVL4:
 279:.\Generated_Source\PSoC4/StripLights.c ****     color = color >> 8;
 227              		.loc 1 279 0
 228 002e D9B2     		uxtb	r1, r3
 229 0030 0E4A     		ldr	r2, .L13+24
 230 0032 1170     		strb	r1, [r2]
 280:.\Generated_Source\PSoC4/StripLights.c ****     StripLights_DATA = (uint8)(color & 0x000000FF);  // Write green
 231              		.loc 1 280 0
 232 0034 190A     		lsr	r1, r3, #8
 233              	.LVL5:
 281:.\Generated_Source\PSoC4/StripLights.c ****     color = color >> 8;
 234              		.loc 1 281 0
 235 0036 C9B2     		uxtb	r1, r1
 236              	.LVL6:
 237 0038 1170     		strb	r1, [r2]
 282:.\Generated_Source\PSoC4/StripLights.c ****     StripLights_DATA = (uint8)(color & 0x000000FF);  // Write green
 238              		.loc 1 282 0
 239 003a 1B0C     		lsr	r3, r3, #16
 240              	.LVL7:
 283:.\Generated_Source\PSoC4/StripLights.c ****     
 241              		.loc 1 283 0
 242 003c DBB2     		uxtb	r3, r3
 243              	.LVL8:
 244 003e 1370     		strb	r3, [r2]
 285:.\Generated_Source\PSoC4/StripLights.c ****  //   StripLights_CONTROL = StripLights_ENABLE | StripLights_FIFO_IRQ_EN; 
 245              		.loc 1 285 0
 246 0040 0123     		mov	r3, #1
 247 0042 0360     		str	r3, [r0]
 288:.\Generated_Source\PSoC4/StripLights.c ****     StripLights_refreshComplete = 0;
 248              		.loc 1 288 0
 249 0044 1922     		mov	r2, #25
 250 0046 0A4B     		ldr	r3, .L13+28
 251 0048 1A70     		strb	r2, [r3]
 289:.\Generated_Source\PSoC4/StripLights.c **** }
 252              		.loc 1 289 0
 253 004a 0022     		mov	r2, #0
 254 004c 094B     		ldr	r3, .L13+32
 255 004e 1A60     		str	r2, [r3]
 290:.\Generated_Source\PSoC4/StripLights.c **** 
 256              		.loc 1 290 0
 257              		@ sp needed
ARM GAS  C:\Users\JONSHA~1\AppData\Local\Temp\cc9CE70d.s 			page 14


 258 0050 7047     		bx	lr
 259              	.L14:
 260 0052 C046     		.align	2
 261              	.L13:
 262 0054 00000000 		.word	.LANCHOR0
 263 0058 70000F40 		.word	1074724976
 264 005c 00000000 		.word	StripLights_ledArray
 265 0060 00000000 		.word	.LANCHOR1
 266 0064 00000000 		.word	StripLights_DimShift
 267 0068 00000000 		.word	StripLights_DimMask
 268 006c 42000F40 		.word	1074724930
 269 0070 71000F40 		.word	1074724977
 270 0074 00000000 		.word	StripLights_refreshComplete
 271              		.cfi_endproc
 272              	.LFE35:
 273              		.size	StripLights_Trigger, .-StripLights_Trigger
 274              		.section	.text.StripLights_Ready,"ax",%progbits
 275              		.align	2
 276              		.global	StripLights_Ready
 277              		.code	16
 278              		.thumb_func
 279              		.type	StripLights_Ready, %function
 280              	StripLights_Ready:
 281              	.LFB36:
 306:.\Generated_Source\PSoC4/StripLights.c ****     if(StripLights_refreshComplete )
 282              		.loc 1 306 0
 283              		.cfi_startproc
 307:.\Generated_Source\PSoC4/StripLights.c ****     {
 284              		.loc 1 307 0
 285 0000 044B     		ldr	r3, .L17
 286 0002 1868     		ldr	r0, [r3]
 287 0004 0028     		cmp	r0, #0
 288 0006 03D0     		beq	.L16
 309:.\Generated_Source\PSoC4/StripLights.c ****         return((uint32)1);
 289              		.loc 1 309 0
 290 0008 0022     		mov	r2, #0
 291 000a 034B     		ldr	r3, .L17+4
 292 000c 1A70     		strb	r2, [r3]
 310:.\Generated_Source\PSoC4/StripLights.c ****     }
 293              		.loc 1 310 0
 294 000e 0120     		mov	r0, #1
 295              	.L16:
 316:.\Generated_Source\PSoC4/StripLights.c **** 
 296              		.loc 1 316 0
 297              		@ sp needed
 298 0010 7047     		bx	lr
 299              	.L18:
 300 0012 C046     		.align	2
 301              	.L17:
 302 0014 00000000 		.word	StripLights_refreshComplete
 303 0018 71000F40 		.word	1074724977
 304              		.cfi_endproc
 305              	.LFE36:
 306              		.size	StripLights_Ready, .-StripLights_Ready
 307              		.section	.text.StripLights_Stop,"ax",%progbits
 308              		.align	2
 309              		.global	StripLights_Stop
ARM GAS  C:\Users\JONSHA~1\AppData\Local\Temp\cc9CE70d.s 			page 15


 310              		.code	16
 311              		.thumb_func
 312              		.type	StripLights_Stop, %function
 313              	StripLights_Stop:
 314              	.LFB37:
 333:.\Generated_Source\PSoC4/StripLights.c **** 
 315              		.loc 1 333 0
 316              		.cfi_startproc
 335:.\Generated_Source\PSoC4/StripLights.c **** }
 317              		.loc 1 335 0
 318 0000 0022     		mov	r2, #0
 319 0002 014B     		ldr	r3, .L20
 320 0004 1A70     		strb	r2, [r3]
 336:.\Generated_Source\PSoC4/StripLights.c **** 
 321              		.loc 1 336 0
 322              		@ sp needed
 323 0006 7047     		bx	lr
 324              	.L21:
 325              		.align	2
 326              	.L20:
 327 0008 71000F40 		.word	1074724977
 328              		.cfi_endproc
 329              	.LFE37:
 330              		.size	StripLights_Stop, .-StripLights_Stop
 331              		.global	__aeabi_uidivmod
 332              		.section	.text.StripLights_ColorInc,"ax",%progbits
 333              		.align	2
 334              		.global	StripLights_ColorInc
 335              		.code	16
 336              		.thumb_func
 337              		.type	StripLights_ColorInc, %function
 338              	StripLights_ColorInc:
 339              	.LFB38:
 353:.\Generated_Source\PSoC4/StripLights.c ****     uint32 color;
 340              		.loc 1 353 0
 341              		.cfi_startproc
 342              	.LVL9:
 343 0000 10B5     		push	{r4, lr}
 344              		.cfi_def_cfa_offset 8
 345              		.cfi_offset 4, -8
 346              		.cfi_offset 14, -4
 358:.\Generated_Source\PSoC4/StripLights.c ****     colorIndex = colorIndex % StripLights_COLOR_WHEEL_SIZE;
 347              		.loc 1 358 0
 348 0002 054C     		ldr	r4, .L23
 349 0004 2369     		ldr	r3, [r4, #16]
 350 0006 9C46     		mov	ip, r3
 351 0008 6044     		add	r0, r0, ip
 352              	.LVL10:
 359:.\Generated_Source\PSoC4/StripLights.c **** 
 353              		.loc 1 359 0
 354 000a 1821     		mov	r1, #24
 355 000c FFF7FEFF 		bl	__aeabi_uidivmod
 356              	.LVL11:
 357 0010 2161     		str	r1, [r4, #16]
 358              	.LVL12:
 369:.\Generated_Source\PSoC4/StripLights.c **** /*****************************************************************************
 359              		.loc 1 369 0
ARM GAS  C:\Users\JONSHA~1\AppData\Local\Temp\cc9CE70d.s 			page 16


 360 0012 081C     		mov	r0, r1
 361              		@ sp needed
 362 0014 10BD     		pop	{r4, pc}
 363              	.L24:
 364 0016 C046     		.align	2
 365              	.L23:
 366 0018 00000000 		.word	.LANCHOR0
 367              		.cfi_endproc
 368              	.LFE38:
 369              		.size	StripLights_ColorInc, .-StripLights_ColorInc
 370              		.section	.text.StripLights_MemClear,"ax",%progbits
 371              		.align	2
 372              		.global	StripLights_MemClear
 373              		.code	16
 374              		.thumb_func
 375              		.type	StripLights_MemClear, %function
 376              	StripLights_MemClear:
 377              	.LFB42:
 470:.\Generated_Source\PSoC4/StripLights.c **** 
 471:.\Generated_Source\PSoC4/StripLights.c **** 
 472:.\Generated_Source\PSoC4/StripLights.c **** /*******************************************************************************
 473:.\Generated_Source\PSoC4/StripLights.c **** * Function Name: StripLights_DisplayClear
 474:.\Generated_Source\PSoC4/StripLights.c **** ********************************************************************************
 475:.\Generated_Source\PSoC4/StripLights.c **** * Summary:
 476:.\Generated_Source\PSoC4/StripLights.c **** *   Clear memory with a given value and update the display.
 477:.\Generated_Source\PSoC4/StripLights.c **** *
 478:.\Generated_Source\PSoC4/StripLights.c **** * Parameters:  
 479:.\Generated_Source\PSoC4/StripLights.c **** *  uint32 color: Color to clear display. 
 480:.\Generated_Source\PSoC4/StripLights.c **** *
 481:.\Generated_Source\PSoC4/StripLights.c **** * Return: 
 482:.\Generated_Source\PSoC4/StripLights.c **** *  void
 483:.\Generated_Source\PSoC4/StripLights.c **** *
 484:.\Generated_Source\PSoC4/StripLights.c **** *******************************************************************************/
 485:.\Generated_Source\PSoC4/StripLights.c **** void StripLights_DisplayClear(uint32 color)
 486:.\Generated_Source\PSoC4/StripLights.c **** {   
 487:.\Generated_Source\PSoC4/StripLights.c ****     StripLights_MemClear(color);
 488:.\Generated_Source\PSoC4/StripLights.c ****     StripLights_Trigger(1);
 489:.\Generated_Source\PSoC4/StripLights.c **** }
 490:.\Generated_Source\PSoC4/StripLights.c **** 
 491:.\Generated_Source\PSoC4/StripLights.c **** /*******************************************************************************
 492:.\Generated_Source\PSoC4/StripLights.c **** * Function Name: StripLights_MemClear
 493:.\Generated_Source\PSoC4/StripLights.c **** ********************************************************************************
 494:.\Generated_Source\PSoC4/StripLights.c **** * Summary:
 495:.\Generated_Source\PSoC4/StripLights.c **** *   Clear LED memory with given color, but do not update display.
 496:.\Generated_Source\PSoC4/StripLights.c **** *
 497:.\Generated_Source\PSoC4/StripLights.c **** * Parameters:  
 498:.\Generated_Source\PSoC4/StripLights.c **** *  uint32 color: Color to clear display.  
 499:.\Generated_Source\PSoC4/StripLights.c **** *
 500:.\Generated_Source\PSoC4/StripLights.c **** * Return: 
 501:.\Generated_Source\PSoC4/StripLights.c **** *  void
 502:.\Generated_Source\PSoC4/StripLights.c **** *
 503:.\Generated_Source\PSoC4/StripLights.c **** *******************************************************************************/
 504:.\Generated_Source\PSoC4/StripLights.c **** void StripLights_MemClear(uint32 color)
 505:.\Generated_Source\PSoC4/StripLights.c **** {
 378              		.loc 1 505 0
 379              		.cfi_startproc
 380              	.LVL13:
ARM GAS  C:\Users\JONSHA~1\AppData\Local\Temp\cc9CE70d.s 			page 17


 381 0000 10B5     		push	{r4, lr}
 382              		.cfi_def_cfa_offset 8
 383              		.cfi_offset 4, -8
 384              		.cfi_offset 14, -4
 385              	.LVL14:
 506:.\Generated_Source\PSoC4/StripLights.c ****     uint32  row, col;
 507:.\Generated_Source\PSoC4/StripLights.c ****     
 508:.\Generated_Source\PSoC4/StripLights.c ****     for(row=0; row < StripLights_ARRAY_ROWS; row++)
 386              		.loc 1 508 0
 387 0002 0021     		mov	r1, #0
 388 0004 0BE0     		b	.L26
 389              	.LVL15:
 390              	.L27:
 509:.\Generated_Source\PSoC4/StripLights.c ****     {
 510:.\Generated_Source\PSoC4/StripLights.c ****         for(col=0; col < StripLights_ARRAY_COLS; col++)
 511:.\Generated_Source\PSoC4/StripLights.c ****         {
 512:.\Generated_Source\PSoC4/StripLights.c ****             StripLights_ledArray[row][col] = color;
 391              		.loc 1 512 0 discriminator 3
 392 0006 0B01     		lsl	r3, r1, #4
 393 0008 5B1A     		sub	r3, r3, r1
 394 000a 1B01     		lsl	r3, r3, #4
 395 000c 9B18     		add	r3, r3, r2
 396 000e 054C     		ldr	r4, .L30
 397 0010 1855     		strb	r0, [r3, r4]
 510:.\Generated_Source\PSoC4/StripLights.c ****         {
 398              		.loc 1 510 0 discriminator 3
 399 0012 0132     		add	r2, r2, #1
 400              	.LVL16:
 401 0014 00E0     		b	.L28
 402              	.LVL17:
 403              	.L29:
 404 0016 0022     		mov	r2, #0
 405              	.L28:
 406              	.LVL18:
 510:.\Generated_Source\PSoC4/StripLights.c ****         {
 407              		.loc 1 510 0 is_stmt 0 discriminator 1
 408 0018 EF2A     		cmp	r2, #239
 409 001a F4D9     		bls	.L27
 508:.\Generated_Source\PSoC4/StripLights.c ****     {
 410              		.loc 1 508 0 is_stmt 1 discriminator 2
 411 001c 0131     		add	r1, r1, #1
 412              	.LVL19:
 413              	.L26:
 508:.\Generated_Source\PSoC4/StripLights.c ****     {
 414              		.loc 1 508 0 is_stmt 0 discriminator 1
 415 001e 0029     		cmp	r1, #0
 416 0020 F9D0     		beq	.L29
 513:.\Generated_Source\PSoC4/StripLights.c ****             #if(StripLights_MEMORY_TYPE == StripLights_MEMORY_RGB)
 514:.\Generated_Source\PSoC4/StripLights.c ****                 StripLights_ledArray[row][col] = color;
 515:.\Generated_Source\PSoC4/StripLights.c ****             #else  /* Else use lookup table */
 516:.\Generated_Source\PSoC4/StripLights.c ****                  StripLights_ledArray[row][col] = (uint8)color;
 517:.\Generated_Source\PSoC4/StripLights.c ****             #endif
 518:.\Generated_Source\PSoC4/StripLights.c ****         }
 519:.\Generated_Source\PSoC4/StripLights.c ****     }
 520:.\Generated_Source\PSoC4/StripLights.c **** }
 417              		.loc 1 520 0 is_stmt 1
 418              		@ sp needed
ARM GAS  C:\Users\JONSHA~1\AppData\Local\Temp\cc9CE70d.s 			page 18


 419 0022 10BD     		pop	{r4, pc}
 420              	.L31:
 421              		.align	2
 422              	.L30:
 423 0024 00000000 		.word	StripLights_ledArray
 424              		.cfi_endproc
 425              	.LFE42:
 426              		.size	StripLights_MemClear, .-StripLights_MemClear
 427              		.section	.text.StripLights_DisplayClear,"ax",%progbits
 428              		.align	2
 429              		.global	StripLights_DisplayClear
 430              		.code	16
 431              		.thumb_func
 432              		.type	StripLights_DisplayClear, %function
 433              	StripLights_DisplayClear:
 434              	.LFB41:
 486:.\Generated_Source\PSoC4/StripLights.c ****     StripLights_MemClear(color);
 435              		.loc 1 486 0
 436              		.cfi_startproc
 437              	.LVL20:
 438 0000 08B5     		push	{r3, lr}
 439              		.cfi_def_cfa_offset 8
 440              		.cfi_offset 3, -8
 441              		.cfi_offset 14, -4
 487:.\Generated_Source\PSoC4/StripLights.c ****     StripLights_Trigger(1);
 442              		.loc 1 487 0
 443 0002 FFF7FEFF 		bl	StripLights_MemClear
 444              	.LVL21:
 488:.\Generated_Source\PSoC4/StripLights.c **** }
 445              		.loc 1 488 0
 446 0006 0120     		mov	r0, #1
 447 0008 FFF7FEFF 		bl	StripLights_Trigger
 448              	.LVL22:
 489:.\Generated_Source\PSoC4/StripLights.c **** 
 449              		.loc 1 489 0
 450              		@ sp needed
 451 000c 08BD     		pop	{r3, pc}
 452              		.cfi_endproc
 453              	.LFE41:
 454              		.size	StripLights_DisplayClear, .-StripLights_DisplayClear
 455 000e C046     		.section	.text.StripLights_WriteColor,"ax",%progbits
 456              		.align	2
 457              		.global	StripLights_WriteColor
 458              		.code	16
 459              		.thumb_func
 460              		.type	StripLights_WriteColor, %function
 461              	StripLights_WriteColor:
 462              	.LFB43:
 521:.\Generated_Source\PSoC4/StripLights.c **** 
 522:.\Generated_Source\PSoC4/StripLights.c **** 
 523:.\Generated_Source\PSoC4/StripLights.c **** 
 524:.\Generated_Source\PSoC4/StripLights.c **** /*******************************************************************************
 525:.\Generated_Source\PSoC4/StripLights.c **** * Function Name: StripLights_WriteColor
 526:.\Generated_Source\PSoC4/StripLights.c **** ********************************************************************************
 527:.\Generated_Source\PSoC4/StripLights.c **** * Summary:
 528:.\Generated_Source\PSoC4/StripLights.c **** *   Write given color directly to output register.
 529:.\Generated_Source\PSoC4/StripLights.c **** *
ARM GAS  C:\Users\JONSHA~1\AppData\Local\Temp\cc9CE70d.s 			page 19


 530:.\Generated_Source\PSoC4/StripLights.c **** * Parameters:  
 531:.\Generated_Source\PSoC4/StripLights.c **** *  uint32 color: Color to write to display. 
 532:.\Generated_Source\PSoC4/StripLights.c **** *
 533:.\Generated_Source\PSoC4/StripLights.c **** * Return: 
 534:.\Generated_Source\PSoC4/StripLights.c **** *  void
 535:.\Generated_Source\PSoC4/StripLights.c **** *
 536:.\Generated_Source\PSoC4/StripLights.c **** *******************************************************************************/
 537:.\Generated_Source\PSoC4/StripLights.c **** void StripLights_WriteColor(uint32 color)
 538:.\Generated_Source\PSoC4/StripLights.c **** {
 463              		.loc 1 538 0
 464              		.cfi_startproc
 465              	.LVL23:
 466              	.L34:
 539:.\Generated_Source\PSoC4/StripLights.c ****     while( (StripLights_STATUS & StripLights_FIFO_EMPTY) == 0); 
 467              		.loc 1 539 0 discriminator 1
 468 0000 064B     		ldr	r3, .L35
 469 0002 1B78     		ldrb	r3, [r3]
 470 0004 DB07     		lsl	r3, r3, #31
 471 0006 FBD5     		bpl	.L34
 540:.\Generated_Source\PSoC4/StripLights.c **** 
 541:.\Generated_Source\PSoC4/StripLights.c ****     StripLights_DATA = (uint8)(color & 0x000000FF);  // Write Green
 472              		.loc 1 541 0
 473 0008 C2B2     		uxtb	r2, r0
 474 000a 054B     		ldr	r3, .L35+4
 475 000c 1A70     		strb	r2, [r3]
 542:.\Generated_Source\PSoC4/StripLights.c ****     color = color >> 8;
 476              		.loc 1 542 0
 477 000e 020A     		lsr	r2, r0, #8
 478              	.LVL24:
 543:.\Generated_Source\PSoC4/StripLights.c ****     StripLights_DATA = (uint8)(color & 0x000000FF);  // Write Red
 479              		.loc 1 543 0
 480 0010 D2B2     		uxtb	r2, r2
 481              	.LVL25:
 482 0012 1A70     		strb	r2, [r3]
 544:.\Generated_Source\PSoC4/StripLights.c ****     color = color >> 8;
 483              		.loc 1 544 0
 484 0014 000C     		lsr	r0, r0, #16
 485              	.LVL26:
 545:.\Generated_Source\PSoC4/StripLights.c ****     StripLights_DATA = (uint8)(color & 0x000000FF);  // Write Blue
 486              		.loc 1 545 0
 487 0016 C0B2     		uxtb	r0, r0
 488              	.LVL27:
 489 0018 1870     		strb	r0, [r3]
 546:.\Generated_Source\PSoC4/StripLights.c **** }
 490              		.loc 1 546 0
 491              		@ sp needed
 492 001a 7047     		bx	lr
 493              	.L36:
 494              		.align	2
 495              	.L35:
 496 001c 62000F40 		.word	1074724962
 497 0020 42000F40 		.word	1074724930
 498              		.cfi_endproc
 499              	.LFE43:
 500              		.size	StripLights_WriteColor, .-StripLights_WriteColor
 501              		.section	.text.StripLights_Pixel,"ax",%progbits
 502              		.align	2
ARM GAS  C:\Users\JONSHA~1\AppData\Local\Temp\cc9CE70d.s 			page 20


 503              		.global	StripLights_Pixel
 504              		.code	16
 505              		.thumb_func
 506              		.type	StripLights_Pixel, %function
 507              	StripLights_Pixel:
 508              	.LFB44:
 547:.\Generated_Source\PSoC4/StripLights.c **** 
 548:.\Generated_Source\PSoC4/StripLights.c **** 
 549:.\Generated_Source\PSoC4/StripLights.c **** /*******************************************************************************
 550:.\Generated_Source\PSoC4/StripLights.c **** * Function Name: StripLights_Pixel
 551:.\Generated_Source\PSoC4/StripLights.c **** ********************************************************************************
 552:.\Generated_Source\PSoC4/StripLights.c **** *
 553:.\Generated_Source\PSoC4/StripLights.c **** * Summary:
 554:.\Generated_Source\PSoC4/StripLights.c **** *  Draw Pixel  
 555:.\Generated_Source\PSoC4/StripLights.c **** *
 556:.\Generated_Source\PSoC4/StripLights.c **** * Parameters:  
 557:.\Generated_Source\PSoC4/StripLights.c **** *  x,y:    Location to draw the pixel
 558:.\Generated_Source\PSoC4/StripLights.c **** *  color:  Color of the pixel
 559:.\Generated_Source\PSoC4/StripLights.c **** *
 560:.\Generated_Source\PSoC4/StripLights.c **** * Return: 
 561:.\Generated_Source\PSoC4/StripLights.c **** *  None 
 562:.\Generated_Source\PSoC4/StripLights.c **** *******************************************************************************/
 563:.\Generated_Source\PSoC4/StripLights.c **** void StripLights_Pixel(int32 x, int32 y, uint32 color)
 564:.\Generated_Source\PSoC4/StripLights.c **** {
 509              		.loc 1 564 0
 510              		.cfi_startproc
 511              	.LVL28:
 565:.\Generated_Source\PSoC4/StripLights.c **** 
 566:.\Generated_Source\PSoC4/StripLights.c **** 	if((x >= StripLights_MIN_X) && (y >= StripLights_MIN_Y) && (x <= StripLights_MAX_X) && (y <= Strip
 512              		.loc 1 566 0
 513 0000 0028     		cmp	r0, #0
 514 0002 0BDB     		blt	.L37
 515              		.loc 1 566 0 is_stmt 0 discriminator 1
 516 0004 0029     		cmp	r1, #0
 517 0006 09DB     		blt	.L37
 518              		.loc 1 566 0 discriminator 2
 519 0008 EF28     		cmp	r0, #239
 520 000a 07DC     		bgt	.L37
 521              		.loc 1 566 0 discriminator 3
 522 000c 0029     		cmp	r1, #0
 523 000e 05DC     		bgt	.L37
 567:.\Generated_Source\PSoC4/StripLights.c ****     {
 568:.\Generated_Source\PSoC4/StripLights.c **** 
 569:.\Generated_Source\PSoC4/StripLights.c ****     #if(StripLights_MEMORY_TYPE == StripLights_MEMORY_RGB)
 570:.\Generated_Source\PSoC4/StripLights.c ****        StripLights_ledArray[y][x] = color;
 571:.\Generated_Source\PSoC4/StripLights.c ****     #else  /* Else use lookup table */
 572:.\Generated_Source\PSoC4/StripLights.c ****        StripLights_ledArray[y][x] = (uint8)color;
 524              		.loc 1 572 0 is_stmt 1
 525 0010 0B01     		lsl	r3, r1, #4
 526 0012 591A     		sub	r1, r3, r1
 527              	.LVL29:
 528 0014 0901     		lsl	r1, r1, #4
 529 0016 0818     		add	r0, r1, r0
 530              	.LVL30:
 531 0018 014B     		ldr	r3, .L39
 532 001a 1A54     		strb	r2, [r3, r0]
 533              	.L37:
ARM GAS  C:\Users\JONSHA~1\AppData\Local\Temp\cc9CE70d.s 			page 21


 573:.\Generated_Source\PSoC4/StripLights.c ****     #endif
 574:.\Generated_Source\PSoC4/StripLights.c ****     }
 575:.\Generated_Source\PSoC4/StripLights.c ****   
 576:.\Generated_Source\PSoC4/StripLights.c **** }
 534              		.loc 1 576 0
 535              		@ sp needed
 536 001c 7047     		bx	lr
 537              	.L40:
 538 001e C046     		.align	2
 539              	.L39:
 540 0020 00000000 		.word	StripLights_ledArray
 541              		.cfi_endproc
 542              	.LFE44:
 543              		.size	StripLights_Pixel, .-StripLights_Pixel
 544              		.section	.text.StripLights_GetPixel,"ax",%progbits
 545              		.align	2
 546              		.global	StripLights_GetPixel
 547              		.code	16
 548              		.thumb_func
 549              		.type	StripLights_GetPixel, %function
 550              	StripLights_GetPixel:
 551              	.LFB45:
 577:.\Generated_Source\PSoC4/StripLights.c **** 
 578:.\Generated_Source\PSoC4/StripLights.c **** /*******************************************************************************
 579:.\Generated_Source\PSoC4/StripLights.c **** * Function Name: StripLights_GetPixel
 580:.\Generated_Source\PSoC4/StripLights.c **** ********************************************************************************
 581:.\Generated_Source\PSoC4/StripLights.c **** *
 582:.\Generated_Source\PSoC4/StripLights.c **** * Summary:
 583:.\Generated_Source\PSoC4/StripLights.c **** *  Get Pixel Color  
 584:.\Generated_Source\PSoC4/StripLights.c **** *
 585:.\Generated_Source\PSoC4/StripLights.c **** * Parameters:  
 586:.\Generated_Source\PSoC4/StripLights.c **** *  x,y:    Location to get pixel color
 587:.\Generated_Source\PSoC4/StripLights.c **** *
 588:.\Generated_Source\PSoC4/StripLights.c **** * Return: 
 589:.\Generated_Source\PSoC4/StripLights.c **** *  None 
 590:.\Generated_Source\PSoC4/StripLights.c **** *******************************************************************************/
 591:.\Generated_Source\PSoC4/StripLights.c **** uint32 StripLights_GetPixel(int32 x, int32 y)
 592:.\Generated_Source\PSoC4/StripLights.c **** {
 552              		.loc 1 592 0
 553              		.cfi_startproc
 554              	.LVL31:
 593:.\Generated_Source\PSoC4/StripLights.c ****     uint32 color;
 594:.\Generated_Source\PSoC4/StripLights.c ****     if((x>=0) && (y>=0) && (x < StripLights_ARRAY_COLS) && (y < StripLights_ARRAY_ROWS))
 555              		.loc 1 594 0
 556 0000 0028     		cmp	r0, #0
 557 0002 0BDB     		blt	.L42
 558              		.loc 1 594 0 is_stmt 0 discriminator 1
 559 0004 0029     		cmp	r1, #0
 560 0006 09DB     		blt	.L42
 561              		.loc 1 594 0 discriminator 2
 562 0008 EF28     		cmp	r0, #239
 563 000a 07DC     		bgt	.L42
 564              		.loc 1 594 0 discriminator 3
 565 000c 0029     		cmp	r1, #0
 566 000e 05DC     		bgt	.L42
 595:.\Generated_Source\PSoC4/StripLights.c ****     {
 596:.\Generated_Source\PSoC4/StripLights.c ****     #if(StripLights_MEMORY_TYPE == StripLights_MEMORY_RGB)
ARM GAS  C:\Users\JONSHA~1\AppData\Local\Temp\cc9CE70d.s 			page 22


 597:.\Generated_Source\PSoC4/StripLights.c ****        color = StripLights_ledArray[y][x];
 598:.\Generated_Source\PSoC4/StripLights.c ****     #else  /* Else use lookup table */
 599:.\Generated_Source\PSoC4/StripLights.c ****        color = (uint32)StripLights_ledArray[y][x];
 567              		.loc 1 599 0 is_stmt 1
 568 0010 0B01     		lsl	r3, r1, #4
 569 0012 591A     		sub	r1, r3, r1
 570              	.LVL32:
 571 0014 0901     		lsl	r1, r1, #4
 572 0016 0818     		add	r0, r1, r0
 573              	.LVL33:
 574 0018 014B     		ldr	r3, .L43
 575 001a C35C     		ldrb	r3, [r0, r3]
 576              	.LVL34:
 577              	.L42:
 600:.\Generated_Source\PSoC4/StripLights.c ****     #endif
 601:.\Generated_Source\PSoC4/StripLights.c ****     }
 602:.\Generated_Source\PSoC4/StripLights.c ****     return(color);
 603:.\Generated_Source\PSoC4/StripLights.c **** }
 578              		.loc 1 603 0
 579 001c 181C     		mov	r0, r3
 580              		@ sp needed
 581 001e 7047     		bx	lr
 582              	.L44:
 583              		.align	2
 584              	.L43:
 585 0020 00000000 		.word	StripLights_ledArray
 586              		.cfi_endproc
 587              	.LFE45:
 588              		.size	StripLights_GetPixel, .-StripLights_GetPixel
 589              		.section	.text.StripLights_DrawCircle,"ax",%progbits
 590              		.align	2
 591              		.global	StripLights_DrawCircle
 592              		.code	16
 593              		.thumb_func
 594              		.type	StripLights_DrawCircle, %function
 595              	StripLights_DrawCircle:
 596              	.LFB46:
 604:.\Generated_Source\PSoC4/StripLights.c **** 
 605:.\Generated_Source\PSoC4/StripLights.c **** /*******************************************************************************
 606:.\Generated_Source\PSoC4/StripLights.c **** * Function Name: StripLights_DrawCircle
 607:.\Generated_Source\PSoC4/StripLights.c **** ********************************************************************************
 608:.\Generated_Source\PSoC4/StripLights.c **** *
 609:.\Generated_Source\PSoC4/StripLights.c **** * Summary:
 610:.\Generated_Source\PSoC4/StripLights.c **** *  Draw a circle on the display given a start point and radius.  
 611:.\Generated_Source\PSoC4/StripLights.c **** *
 612:.\Generated_Source\PSoC4/StripLights.c **** *  This code uses Bresenham's Circle Algorithm. 
 613:.\Generated_Source\PSoC4/StripLights.c **** *
 614:.\Generated_Source\PSoC4/StripLights.c **** * Parameters:  
 615:.\Generated_Source\PSoC4/StripLights.c **** *  x0, y0: Center of circle
 616:.\Generated_Source\PSoC4/StripLights.c **** *  radius: Radius of circle
 617:.\Generated_Source\PSoC4/StripLights.c **** *  color:  Color of circle
 618:.\Generated_Source\PSoC4/StripLights.c **** *
 619:.\Generated_Source\PSoC4/StripLights.c **** * Return: 
 620:.\Generated_Source\PSoC4/StripLights.c **** *  None 
 621:.\Generated_Source\PSoC4/StripLights.c **** *  
 622:.\Generated_Source\PSoC4/StripLights.c **** *******************************************************************************/
 623:.\Generated_Source\PSoC4/StripLights.c **** void StripLights_DrawCircle (int32 x0, int32 y0, int32 radius, uint32 color)
ARM GAS  C:\Users\JONSHA~1\AppData\Local\Temp\cc9CE70d.s 			page 23


 624:.\Generated_Source\PSoC4/StripLights.c **** {
 597              		.loc 1 624 0
 598              		.cfi_startproc
 599              	.LVL35:
 600 0000 F0B5     		push	{r4, r5, r6, r7, lr}
 601              		.cfi_def_cfa_offset 20
 602              		.cfi_offset 4, -20
 603              		.cfi_offset 5, -16
 604              		.cfi_offset 6, -12
 605              		.cfi_offset 7, -8
 606              		.cfi_offset 14, -4
 607 0002 5F46     		mov	r7, fp
 608 0004 5646     		mov	r6, r10
 609 0006 4D46     		mov	r5, r9
 610 0008 4446     		mov	r4, r8
 611 000a F0B4     		push	{r4, r5, r6, r7}
 612              		.cfi_def_cfa_offset 36
 613              		.cfi_offset 8, -36
 614              		.cfi_offset 9, -32
 615              		.cfi_offset 10, -28
 616              		.cfi_offset 11, -24
 617 000c 85B0     		sub	sp, sp, #20
 618              		.cfi_def_cfa_offset 56
 619 000e 8146     		mov	r9, r0
 620 0010 8846     		mov	r8, r1
 621 0012 141C     		mov	r4, r2
 622 0014 1D1C     		mov	r5, r3
 623 0016 0193     		str	r3, [sp, #4]
 625:.\Generated_Source\PSoC4/StripLights.c **** 	int32 f = 1 - radius;
 624              		.loc 1 625 0
 625 0018 0126     		mov	r6, #1
 626 001a B61A     		sub	r6, r6, r2
 627              	.LVL36:
 626:.\Generated_Source\PSoC4/StripLights.c **** 	int32 ddF_x = 0;
 627:.\Generated_Source\PSoC4/StripLights.c **** 	int32 ddF_y = -2 * radius;
 628              		.loc 1 627 0
 629 001c 5300     		lsl	r3, r2, #1
 630              	.LVL37:
 631 001e 5B42     		neg	r3, r3
 632 0020 9A46     		mov	r10, r3
 633              	.LVL38:
 628:.\Generated_Source\PSoC4/StripLights.c **** 	int32 x = 0;
 629:.\Generated_Source\PSoC4/StripLights.c **** 	int32 y = radius;
 630:.\Generated_Source\PSoC4/StripLights.c **** 
 631:.\Generated_Source\PSoC4/StripLights.c **** 	StripLights_Pixel(x0, y0 + radius, color);
 634              		.loc 1 631 0
 635 0022 8918     		add	r1, r1, r2
 636              	.LVL39:
 637 0024 2A1C     		mov	r2, r5
 638              	.LVL40:
 639 0026 FFF7FEFF 		bl	StripLights_Pixel
 640              	.LVL41:
 632:.\Generated_Source\PSoC4/StripLights.c **** 	StripLights_Pixel(x0, y0 - radius, color);
 641              		.loc 1 632 0
 642 002a 4346     		mov	r3, r8
 643 002c 191B     		sub	r1, r3, r4
 644 002e 4846     		mov	r0, r9
ARM GAS  C:\Users\JONSHA~1\AppData\Local\Temp\cc9CE70d.s 			page 24


 645 0030 2A1C     		mov	r2, r5
 646 0032 FFF7FEFF 		bl	StripLights_Pixel
 647              	.LVL42:
 633:.\Generated_Source\PSoC4/StripLights.c **** 	StripLights_Pixel( x0 + radius, y0, color);
 648              		.loc 1 633 0
 649 0036 4B46     		mov	r3, r9
 650 0038 1819     		add	r0, r3, r4
 651 003a 4146     		mov	r1, r8
 652 003c 2A1C     		mov	r2, r5
 653 003e FFF7FEFF 		bl	StripLights_Pixel
 654              	.LVL43:
 634:.\Generated_Source\PSoC4/StripLights.c **** 	StripLights_Pixel( x0 - radius, y0, color);
 655              		.loc 1 634 0
 656 0042 4B46     		mov	r3, r9
 657 0044 181B     		sub	r0, r3, r4
 658 0046 4146     		mov	r1, r8
 659 0048 2A1C     		mov	r2, r5
 660 004a FFF7FEFF 		bl	StripLights_Pixel
 661              	.LVL44:
 628:.\Generated_Source\PSoC4/StripLights.c **** 	int32 y = radius;
 662              		.loc 1 628 0
 663 004e 0025     		mov	r5, #0
 664              	.LVL45:
 626:.\Generated_Source\PSoC4/StripLights.c **** 	int32 ddF_y = -2 * radius;
 665              		.loc 1 626 0
 666 0050 0023     		mov	r3, #0
 635:.\Generated_Source\PSoC4/StripLights.c **** 
 636:.\Generated_Source\PSoC4/StripLights.c **** 	while(x < y)
 667              		.loc 1 636 0
 668 0052 49E0     		b	.L46
 669              	.LVL46:
 670              	.L48:
 637:.\Generated_Source\PSoC4/StripLights.c **** 	{
 638:.\Generated_Source\PSoC4/StripLights.c **** 		if(f >= 0)
 671              		.loc 1 638 0
 672 0054 002E     		cmp	r6, #0
 673 0056 04DB     		blt	.L47
 639:.\Generated_Source\PSoC4/StripLights.c **** 		{
 640:.\Generated_Source\PSoC4/StripLights.c **** 			y--;
 674              		.loc 1 640 0
 675 0058 013C     		sub	r4, r4, #1
 676              	.LVL47:
 641:.\Generated_Source\PSoC4/StripLights.c **** 			ddF_y += 2;
 677              		.loc 1 641 0
 678 005a 0222     		mov	r2, #2
 679 005c 9446     		mov	ip, r2
 680 005e E244     		add	r10, r10, ip
 681              	.LVL48:
 642:.\Generated_Source\PSoC4/StripLights.c **** 			f += ddF_y;
 682              		.loc 1 642 0
 683 0060 5644     		add	r6, r6, r10
 684              	.LVL49:
 685              	.L47:
 643:.\Generated_Source\PSoC4/StripLights.c **** 		}
 644:.\Generated_Source\PSoC4/StripLights.c **** 		x++;
 686              		.loc 1 644 0
 687 0062 0135     		add	r5, r5, #1
ARM GAS  C:\Users\JONSHA~1\AppData\Local\Temp\cc9CE70d.s 			page 25


 688              	.LVL50:
 645:.\Generated_Source\PSoC4/StripLights.c **** 		ddF_x += 2;
 689              		.loc 1 645 0
 690 0064 9A1C     		add	r2, r3, #2
 691 0066 9346     		mov	fp, r2
 692              	.LVL51:
 646:.\Generated_Source\PSoC4/StripLights.c **** 		f += ddF_x + 1;
 693              		.loc 1 646 0
 694 0068 0333     		add	r3, r3, #3
 695 006a F618     		add	r6, r6, r3
 696              	.LVL52:
 647:.\Generated_Source\PSoC4/StripLights.c **** 
 648:.\Generated_Source\PSoC4/StripLights.c **** 		StripLights_Pixel(x0 + x, y0 + y, color);
 697              		.loc 1 648 0
 698 006c 4B46     		mov	r3, r9
 699 006e 5F19     		add	r7, r3, r5
 700 0070 4346     		mov	r3, r8
 701 0072 1B19     		add	r3, r3, r4
 702 0074 381C     		mov	r0, r7
 703 0076 0293     		str	r3, [sp, #8]
 704 0078 191C     		mov	r1, r3
 705 007a 019A     		ldr	r2, [sp, #4]
 706              	.LVL53:
 707 007c FFF7FEFF 		bl	StripLights_Pixel
 708              	.LVL54:
 649:.\Generated_Source\PSoC4/StripLights.c **** 		StripLights_Pixel(x0 - x, y0 + y, color);
 709              		.loc 1 649 0
 710 0080 4A46     		mov	r2, r9
 711 0082 531B     		sub	r3, r2, r5
 712 0084 0393     		str	r3, [sp, #12]
 713 0086 181C     		mov	r0, r3
 714 0088 0299     		ldr	r1, [sp, #8]
 715 008a 019A     		ldr	r2, [sp, #4]
 716 008c FFF7FEFF 		bl	StripLights_Pixel
 717              	.LVL55:
 650:.\Generated_Source\PSoC4/StripLights.c **** 		StripLights_Pixel( x0 + x, y0 - y, color);
 718              		.loc 1 650 0
 719 0090 4246     		mov	r2, r8
 720 0092 131B     		sub	r3, r2, r4
 721 0094 381C     		mov	r0, r7
 722 0096 1F1C     		mov	r7, r3
 723 0098 191C     		mov	r1, r3
 724 009a 019A     		ldr	r2, [sp, #4]
 725 009c FFF7FEFF 		bl	StripLights_Pixel
 726              	.LVL56:
 651:.\Generated_Source\PSoC4/StripLights.c **** 		StripLights_Pixel( x0 - x, y0 - y, color);
 727              		.loc 1 651 0
 728 00a0 0398     		ldr	r0, [sp, #12]
 729 00a2 391C     		mov	r1, r7
 730 00a4 019A     		ldr	r2, [sp, #4]
 731 00a6 FFF7FEFF 		bl	StripLights_Pixel
 732              	.LVL57:
 652:.\Generated_Source\PSoC4/StripLights.c **** 		StripLights_Pixel( x0 + y, y0 + x, color);
 733              		.loc 1 652 0
 734 00aa 4B46     		mov	r3, r9
 735 00ac 1B19     		add	r3, r3, r4
 736 00ae 4246     		mov	r2, r8
ARM GAS  C:\Users\JONSHA~1\AppData\Local\Temp\cc9CE70d.s 			page 26


 737 00b0 5719     		add	r7, r2, r5
 738 00b2 0293     		str	r3, [sp, #8]
 739 00b4 181C     		mov	r0, r3
 740 00b6 391C     		mov	r1, r7
 741 00b8 019A     		ldr	r2, [sp, #4]
 742 00ba FFF7FEFF 		bl	StripLights_Pixel
 743              	.LVL58:
 653:.\Generated_Source\PSoC4/StripLights.c **** 		StripLights_Pixel( x0 - y, y0 + x, color);
 744              		.loc 1 653 0
 745 00be 4A46     		mov	r2, r9
 746 00c0 131B     		sub	r3, r2, r4
 747 00c2 0393     		str	r3, [sp, #12]
 748 00c4 181C     		mov	r0, r3
 749 00c6 391C     		mov	r1, r7
 750 00c8 019A     		ldr	r2, [sp, #4]
 751 00ca FFF7FEFF 		bl	StripLights_Pixel
 752              	.LVL59:
 654:.\Generated_Source\PSoC4/StripLights.c **** 		StripLights_Pixel( x0 + y, y0 - x, color);
 753              		.loc 1 654 0
 754 00ce 4246     		mov	r2, r8
 755 00d0 571B     		sub	r7, r2, r5
 756 00d2 0298     		ldr	r0, [sp, #8]
 757 00d4 391C     		mov	r1, r7
 758 00d6 019A     		ldr	r2, [sp, #4]
 759 00d8 FFF7FEFF 		bl	StripLights_Pixel
 760              	.LVL60:
 655:.\Generated_Source\PSoC4/StripLights.c **** 		StripLights_Pixel( x0 - y, y0 - x, color);
 761              		.loc 1 655 0
 762 00dc 0398     		ldr	r0, [sp, #12]
 763 00de 391C     		mov	r1, r7
 764 00e0 019A     		ldr	r2, [sp, #4]
 765 00e2 FFF7FEFF 		bl	StripLights_Pixel
 766              	.LVL61:
 645:.\Generated_Source\PSoC4/StripLights.c **** 		f += ddF_x + 1;
 767              		.loc 1 645 0
 768 00e6 5B46     		mov	r3, fp
 769              	.LVL62:
 770              	.L46:
 636:.\Generated_Source\PSoC4/StripLights.c **** 	{
 771              		.loc 1 636 0
 772 00e8 A542     		cmp	r5, r4
 773 00ea B3DB     		blt	.L48
 656:.\Generated_Source\PSoC4/StripLights.c **** 	}
 657:.\Generated_Source\PSoC4/StripLights.c **** }
 774              		.loc 1 657 0
 775 00ec 05B0     		add	sp, sp, #20
 776              		@ sp needed
 777              	.LVL63:
 778              	.LVL64:
 779              	.LVL65:
 780              	.LVL66:
 781              	.LVL67:
 782              	.LVL68:
 783 00ee 3CBC     		pop	{r2, r3, r4, r5}
 784 00f0 9046     		mov	r8, r2
 785 00f2 9946     		mov	r9, r3
 786 00f4 A246     		mov	r10, r4
ARM GAS  C:\Users\JONSHA~1\AppData\Local\Temp\cc9CE70d.s 			page 27


 787 00f6 AB46     		mov	fp, r5
 788 00f8 F0BD     		pop	{r4, r5, r6, r7, pc}
 789              		.cfi_endproc
 790              	.LFE46:
 791              		.size	StripLights_DrawCircle, .-StripLights_DrawCircle
 792 00fa C046     		.section	.text.StripLights_DrawLine,"ax",%progbits
 793              		.align	2
 794              		.global	StripLights_DrawLine
 795              		.code	16
 796              		.thumb_func
 797              		.type	StripLights_DrawLine, %function
 798              	StripLights_DrawLine:
 799              	.LFB47:
 658:.\Generated_Source\PSoC4/StripLights.c **** 
 659:.\Generated_Source\PSoC4/StripLights.c **** 
 660:.\Generated_Source\PSoC4/StripLights.c **** /*******************************************************************************
 661:.\Generated_Source\PSoC4/StripLights.c **** * Function Name: StripLights_DrawLine
 662:.\Generated_Source\PSoC4/StripLights.c **** ********************************************************************************
 663:.\Generated_Source\PSoC4/StripLights.c **** *
 664:.\Generated_Source\PSoC4/StripLights.c **** * Summary:
 665:.\Generated_Source\PSoC4/StripLights.c **** *  Draw a line on the display.  
 666:.\Generated_Source\PSoC4/StripLights.c **** *
 667:.\Generated_Source\PSoC4/StripLights.c **** * Parameters:  
 668:.\Generated_Source\PSoC4/StripLights.c **** *  x0, y0:  The beginning endpoint
 669:.\Generated_Source\PSoC4/StripLights.c **** *  x1, y1:  The end endpoint.
 670:.\Generated_Source\PSoC4/StripLights.c **** *  color:   Color of the line.
 671:.\Generated_Source\PSoC4/StripLights.c **** *
 672:.\Generated_Source\PSoC4/StripLights.c **** * Return: 
 673:.\Generated_Source\PSoC4/StripLights.c **** *  None 
 674:.\Generated_Source\PSoC4/StripLights.c **** *  
 675:.\Generated_Source\PSoC4/StripLights.c **** *******************************************************************************/
 676:.\Generated_Source\PSoC4/StripLights.c **** void StripLights_DrawLine(int32 x0, int32 y0, int32 x1, int32 y1, uint32 color)
 677:.\Generated_Source\PSoC4/StripLights.c **** {
 800              		.loc 1 677 0
 801              		.cfi_startproc
 802              	.LVL69:
 803 0000 F0B5     		push	{r4, r5, r6, r7, lr}
 804              		.cfi_def_cfa_offset 20
 805              		.cfi_offset 4, -20
 806              		.cfi_offset 5, -16
 807              		.cfi_offset 6, -12
 808              		.cfi_offset 7, -8
 809              		.cfi_offset 14, -4
 810 0002 5F46     		mov	r7, fp
 811 0004 5646     		mov	r6, r10
 812 0006 4D46     		mov	r5, r9
 813 0008 4446     		mov	r4, r8
 814 000a F0B4     		push	{r4, r5, r6, r7}
 815              		.cfi_def_cfa_offset 36
 816              		.cfi_offset 8, -36
 817              		.cfi_offset 9, -32
 818              		.cfi_offset 10, -28
 819              		.cfi_offset 11, -24
 820 000c 83B0     		sub	sp, sp, #12
 821              		.cfi_def_cfa_offset 48
 822 000e 041C     		mov	r4, r0
 823 0010 0D1C     		mov	r5, r1
ARM GAS  C:\Users\JONSHA~1\AppData\Local\Temp\cc9CE70d.s 			page 28


 824 0012 0192     		str	r2, [sp, #4]
 825 0014 9B46     		mov	fp, r3
 678:.\Generated_Source\PSoC4/StripLights.c **** 	int32 dy = y1 - y0; /* Difference between y0 and y1 */
 826              		.loc 1 678 0
 827 0016 5B1A     		sub	r3, r3, r1
 828              	.LVL70:
 679:.\Generated_Source\PSoC4/StripLights.c **** 	int32 dx = x1 - x0; /* Difference between x0 and x1 */
 829              		.loc 1 679 0
 830 0018 171A     		sub	r7, r2, r0
 831              	.LVL71:
 680:.\Generated_Source\PSoC4/StripLights.c **** 	int32 stepx, stepy;
 681:.\Generated_Source\PSoC4/StripLights.c **** 
 682:.\Generated_Source\PSoC4/StripLights.c **** 	if (dy < 0)
 832              		.loc 1 682 0
 833 001a 002B     		cmp	r3, #0
 834 001c 04DA     		bge	.L60
 683:.\Generated_Source\PSoC4/StripLights.c **** 	{
 684:.\Generated_Source\PSoC4/StripLights.c **** 		dy = -dy;
 835              		.loc 1 684 0
 836 001e 5B42     		neg	r3, r3
 837              	.LVL72:
 685:.\Generated_Source\PSoC4/StripLights.c **** 		stepy = -1;
 838              		.loc 1 685 0
 839 0020 0122     		mov	r2, #1
 840              	.LVL73:
 841 0022 5242     		neg	r2, r2
 842 0024 9246     		mov	r10, r2
 843 0026 01E0     		b	.L50
 844              	.LVL74:
 845              	.L60:
 686:.\Generated_Source\PSoC4/StripLights.c **** 	}
 687:.\Generated_Source\PSoC4/StripLights.c **** 	else
 688:.\Generated_Source\PSoC4/StripLights.c **** 	{
 689:.\Generated_Source\PSoC4/StripLights.c **** 		stepy = 1;
 846              		.loc 1 689 0
 847 0028 0122     		mov	r2, #1
 848              	.LVL75:
 849 002a 9246     		mov	r10, r2
 850              	.L50:
 851              	.LVL76:
 690:.\Generated_Source\PSoC4/StripLights.c **** 	}
 691:.\Generated_Source\PSoC4/StripLights.c **** 
 692:.\Generated_Source\PSoC4/StripLights.c **** 	if (dx < 0)
 852              		.loc 1 692 0
 853 002c 002F     		cmp	r7, #0
 854 002e 04DA     		bge	.L61
 693:.\Generated_Source\PSoC4/StripLights.c **** 	{
 694:.\Generated_Source\PSoC4/StripLights.c **** 		dx = -dx;
 855              		.loc 1 694 0
 856 0030 7F42     		neg	r7, r7
 857              	.LVL77:
 695:.\Generated_Source\PSoC4/StripLights.c **** 		stepx = -1;
 858              		.loc 1 695 0
 859 0032 0122     		mov	r2, #1
 860 0034 5242     		neg	r2, r2
 861 0036 9146     		mov	r9, r2
 862 0038 01E0     		b	.L51
ARM GAS  C:\Users\JONSHA~1\AppData\Local\Temp\cc9CE70d.s 			page 29


 863              	.LVL78:
 864              	.L61:
 696:.\Generated_Source\PSoC4/StripLights.c **** 	}
 697:.\Generated_Source\PSoC4/StripLights.c **** 	else
 698:.\Generated_Source\PSoC4/StripLights.c **** 	{
 699:.\Generated_Source\PSoC4/StripLights.c **** 		stepx = 1;
 865              		.loc 1 699 0
 866 003a 0122     		mov	r2, #1
 867 003c 9146     		mov	r9, r2
 868              	.L51:
 869              	.LVL79:
 700:.\Generated_Source\PSoC4/StripLights.c **** 	}
 701:.\Generated_Source\PSoC4/StripLights.c **** 
 702:.\Generated_Source\PSoC4/StripLights.c **** 	dy <<= 1; /* dy is now 2*dy  */
 870              		.loc 1 702 0
 871 003e 5B00     		lsl	r3, r3, #1
 872              	.LVL80:
 873 0040 9846     		mov	r8, r3
 874              	.LVL81:
 703:.\Generated_Source\PSoC4/StripLights.c **** 	dx <<= 1; /* dx is now 2*dx  */
 875              		.loc 1 703 0
 876 0042 7F00     		lsl	r7, r7, #1
 877              	.LVL82:
 704:.\Generated_Source\PSoC4/StripLights.c **** 	StripLights_Pixel(x0, y0, color);
 878              		.loc 1 704 0
 879 0044 201C     		mov	r0, r4
 880              	.LVL83:
 881 0046 291C     		mov	r1, r5
 882              	.LVL84:
 883 0048 0C9A     		ldr	r2, [sp, #48]
 884 004a FFF7FEFF 		bl	StripLights_Pixel
 885              	.LVL85:
 705:.\Generated_Source\PSoC4/StripLights.c **** 
 706:.\Generated_Source\PSoC4/StripLights.c **** 	if (dx > dy) 
 886              		.loc 1 706 0
 887 004e 4745     		cmp	r7, r8
 888 0050 12DD     		ble	.L52
 889              	.LBB2:
 707:.\Generated_Source\PSoC4/StripLights.c **** 	{
 708:.\Generated_Source\PSoC4/StripLights.c **** 		int fraction = dy - (dx >> 1);
 890              		.loc 1 708 0
 891 0052 7B10     		asr	r3, r7, #1
 892 0054 4246     		mov	r2, r8
 893 0056 D61A     		sub	r6, r2, r3
 894              	.LVL86:
 709:.\Generated_Source\PSoC4/StripLights.c **** 		while (x0 != x1)
 895              		.loc 1 709 0
 896 0058 0AE0     		b	.L53
 897              	.L55:
 710:.\Generated_Source\PSoC4/StripLights.c **** 		{
 711:.\Generated_Source\PSoC4/StripLights.c **** 			if (fraction >= 0)
 898              		.loc 1 711 0
 899 005a 002E     		cmp	r6, #0
 900 005c 01DB     		blt	.L54
 712:.\Generated_Source\PSoC4/StripLights.c **** 			{
 713:.\Generated_Source\PSoC4/StripLights.c **** 				y0 += stepy;
 901              		.loc 1 713 0
ARM GAS  C:\Users\JONSHA~1\AppData\Local\Temp\cc9CE70d.s 			page 30


 902 005e 5544     		add	r5, r5, r10
 903              	.LVL87:
 714:.\Generated_Source\PSoC4/StripLights.c **** 				fraction -= dx;
 904              		.loc 1 714 0
 905 0060 F61B     		sub	r6, r6, r7
 906              	.LVL88:
 907              	.L54:
 715:.\Generated_Source\PSoC4/StripLights.c **** 			}
 716:.\Generated_Source\PSoC4/StripLights.c **** 			x0 += stepx;
 908              		.loc 1 716 0
 909 0062 4C44     		add	r4, r4, r9
 910              	.LVL89:
 717:.\Generated_Source\PSoC4/StripLights.c **** 			fraction += dy;
 911              		.loc 1 717 0
 912 0064 4644     		add	r6, r6, r8
 913              	.LVL90:
 718:.\Generated_Source\PSoC4/StripLights.c **** 			StripLights_Pixel(x0, y0, color);
 914              		.loc 1 718 0
 915 0066 201C     		mov	r0, r4
 916 0068 291C     		mov	r1, r5
 917 006a 0C9A     		ldr	r2, [sp, #48]
 918 006c FFF7FEFF 		bl	StripLights_Pixel
 919              	.LVL91:
 920              	.L53:
 709:.\Generated_Source\PSoC4/StripLights.c **** 		{
 921              		.loc 1 709 0
 922 0070 019B     		ldr	r3, [sp, #4]
 923 0072 9C42     		cmp	r4, r3
 924 0074 F1D1     		bne	.L55
 925 0076 11E0     		b	.L49
 926              	.LVL92:
 927              	.L52:
 928              	.LBE2:
 929              	.LBB3:
 719:.\Generated_Source\PSoC4/StripLights.c **** 		}
 720:.\Generated_Source\PSoC4/StripLights.c **** 	}
 721:.\Generated_Source\PSoC4/StripLights.c **** 	else
 722:.\Generated_Source\PSoC4/StripLights.c **** 	{
 723:.\Generated_Source\PSoC4/StripLights.c **** 		int fraction = dx - (dy >> 1);
 930              		.loc 1 723 0
 931 0078 4346     		mov	r3, r8
 932 007a 5E10     		asr	r6, r3, #1
 933 007c BE1B     		sub	r6, r7, r6
 934              	.LVL93:
 724:.\Generated_Source\PSoC4/StripLights.c **** 		while (y0 != y1)
 935              		.loc 1 724 0
 936 007e 0BE0     		b	.L57
 937              	.L59:
 725:.\Generated_Source\PSoC4/StripLights.c **** 		{
 726:.\Generated_Source\PSoC4/StripLights.c **** 			if (fraction >= 0)
 938              		.loc 1 726 0
 939 0080 002E     		cmp	r6, #0
 940 0082 02DB     		blt	.L58
 727:.\Generated_Source\PSoC4/StripLights.c **** 			{
 728:.\Generated_Source\PSoC4/StripLights.c **** 				x0 += stepx;
 941              		.loc 1 728 0
 942 0084 4C44     		add	r4, r4, r9
ARM GAS  C:\Users\JONSHA~1\AppData\Local\Temp\cc9CE70d.s 			page 31


 943              	.LVL94:
 729:.\Generated_Source\PSoC4/StripLights.c **** 				fraction -= dy;
 944              		.loc 1 729 0
 945 0086 4346     		mov	r3, r8
 946 0088 F61A     		sub	r6, r6, r3
 947              	.LVL95:
 948              	.L58:
 730:.\Generated_Source\PSoC4/StripLights.c **** 			}
 731:.\Generated_Source\PSoC4/StripLights.c **** 			y0 += stepy;
 949              		.loc 1 731 0
 950 008a 5544     		add	r5, r5, r10
 951              	.LVL96:
 732:.\Generated_Source\PSoC4/StripLights.c **** 			fraction += dx;
 952              		.loc 1 732 0
 953 008c F619     		add	r6, r6, r7
 954              	.LVL97:
 733:.\Generated_Source\PSoC4/StripLights.c **** 			StripLights_Pixel( x0, y0, color);
 955              		.loc 1 733 0
 956 008e 201C     		mov	r0, r4
 957 0090 291C     		mov	r1, r5
 958 0092 0C9A     		ldr	r2, [sp, #48]
 959 0094 FFF7FEFF 		bl	StripLights_Pixel
 960              	.LVL98:
 961              	.L57:
 724:.\Generated_Source\PSoC4/StripLights.c **** 		{
 962              		.loc 1 724 0
 963 0098 5D45     		cmp	r5, fp
 964 009a F1D1     		bne	.L59
 965              	.LVL99:
 966              	.L49:
 967              	.LBE3:
 734:.\Generated_Source\PSoC4/StripLights.c **** 		}
 735:.\Generated_Source\PSoC4/StripLights.c **** 	}
 736:.\Generated_Source\PSoC4/StripLights.c **** }
 968              		.loc 1 736 0
 969 009c 03B0     		add	sp, sp, #12
 970              		@ sp needed
 971              	.LVL100:
 972              	.LVL101:
 973              	.LVL102:
 974              	.LVL103:
 975              	.LVL104:
 976              	.LVL105:
 977              	.LVL106:
 978 009e 3CBC     		pop	{r2, r3, r4, r5}
 979 00a0 9046     		mov	r8, r2
 980 00a2 9946     		mov	r9, r3
 981 00a4 A246     		mov	r10, r4
 982 00a6 AB46     		mov	fp, r5
 983 00a8 F0BD     		pop	{r4, r5, r6, r7, pc}
 984              		.cfi_endproc
 985              	.LFE47:
 986              		.size	StripLights_DrawLine, .-StripLights_DrawLine
 987 00aa C046     		.section	.text.StripLights_DrawRect,"ax",%progbits
 988              		.align	2
 989              		.global	StripLights_DrawRect
 990              		.code	16
ARM GAS  C:\Users\JONSHA~1\AppData\Local\Temp\cc9CE70d.s 			page 32


 991              		.thumb_func
 992              		.type	StripLights_DrawRect, %function
 993              	StripLights_DrawRect:
 994              	.LFB48:
 737:.\Generated_Source\PSoC4/StripLights.c **** 
 738:.\Generated_Source\PSoC4/StripLights.c **** /*******************************************************************************
 739:.\Generated_Source\PSoC4/StripLights.c **** * Function Name: StripLights_DrawRect
 740:.\Generated_Source\PSoC4/StripLights.c **** ********************************************************************************
 741:.\Generated_Source\PSoC4/StripLights.c **** *
 742:.\Generated_Source\PSoC4/StripLights.c **** * Summary:
 743:.\Generated_Source\PSoC4/StripLights.c **** *  Draw a rectangle, filled or not.  
 744:.\Generated_Source\PSoC4/StripLights.c **** *
 745:.\Generated_Source\PSoC4/StripLights.c **** * Parameters:  
 746:.\Generated_Source\PSoC4/StripLights.c **** *  x0, y0:  The upper lefthand corner.
 747:.\Generated_Source\PSoC4/StripLights.c **** *  x1, y1:  The lower right corner.
 748:.\Generated_Source\PSoC4/StripLights.c **** *  fill:    Non-Zero if retangle is to be filled.
 749:.\Generated_Source\PSoC4/StripLights.c **** *  color:   Color for rectangle, border and fill.
 750:.\Generated_Source\PSoC4/StripLights.c **** *
 751:.\Generated_Source\PSoC4/StripLights.c **** * Return: 
 752:.\Generated_Source\PSoC4/StripLights.c **** *  None 
 753:.\Generated_Source\PSoC4/StripLights.c **** *  
 754:.\Generated_Source\PSoC4/StripLights.c **** *******************************************************************************/
 755:.\Generated_Source\PSoC4/StripLights.c **** void StripLights_DrawRect(int32 x0, int32 y0, int32 x1, int32 y1, int32 fill, uint32 color)
 756:.\Generated_Source\PSoC4/StripLights.c **** {	
 995              		.loc 1 756 0
 996              		.cfi_startproc
 997              	.LVL107:
 998 0000 F0B5     		push	{r4, r5, r6, r7, lr}
 999              		.cfi_def_cfa_offset 20
 1000              		.cfi_offset 4, -20
 1001              		.cfi_offset 5, -16
 1002              		.cfi_offset 6, -12
 1003              		.cfi_offset 7, -8
 1004              		.cfi_offset 14, -4
 1005 0002 85B0     		sub	sp, sp, #20
 1006              		.cfi_def_cfa_offset 40
 1007 0004 041C     		mov	r4, r0
 1008 0006 0291     		str	r1, [sp, #8]
 1009 0008 161C     		mov	r6, r2
 1010 000a 0393     		str	r3, [sp, #12]
 1011 000c 0B9F     		ldr	r7, [sp, #44]
 757:.\Generated_Source\PSoC4/StripLights.c ****      int xDiff;
 758:.\Generated_Source\PSoC4/StripLights.c **** 	/* Check if the rectangle is to be filled    */
 759:.\Generated_Source\PSoC4/StripLights.c **** 	if (fill != 0)
 1012              		.loc 1 759 0
 1013 000e 0A9B     		ldr	r3, [sp, #40]
 1014              	.LVL108:
 1015 0010 002B     		cmp	r3, #0
 1016 0012 15D0     		beq	.L63
 760:.\Generated_Source\PSoC4/StripLights.c **** 	{	
 761:.\Generated_Source\PSoC4/StripLights.c ****         /* Find the difference between the x vars */
 762:.\Generated_Source\PSoC4/StripLights.c **** 		if(x0 > x1)
 1017              		.loc 1 762 0
 1018 0014 9042     		cmp	r0, r2
 1019 0016 01DD     		ble	.L64
 763:.\Generated_Source\PSoC4/StripLights.c **** 		{
 764:.\Generated_Source\PSoC4/StripLights.c **** 			xDiff = x0 - x1; 
ARM GAS  C:\Users\JONSHA~1\AppData\Local\Temp\cc9CE70d.s 			page 33


 1020              		.loc 1 764 0
 1021 0018 851A     		sub	r5, r0, r2
 1022              	.LVL109:
 1023 001a 0EE0     		b	.L65
 1024              	.LVL110:
 1025              	.L64:
 765:.\Generated_Source\PSoC4/StripLights.c **** 		}
 766:.\Generated_Source\PSoC4/StripLights.c **** 		else
 767:.\Generated_Source\PSoC4/StripLights.c **** 		{
 768:.\Generated_Source\PSoC4/StripLights.c **** 			xDiff = x1 - x0;
 1026              		.loc 1 768 0
 1027 001c 151A     		sub	r5, r2, r0
 1028              	.LVL111:
 1029 001e 0CE0     		b	.L65
 1030              	.LVL112:
 1031              	.L69:
 769:.\Generated_Source\PSoC4/StripLights.c **** 		}
 770:.\Generated_Source\PSoC4/StripLights.c **** 	
 771:.\Generated_Source\PSoC4/StripLights.c **** 	    /* Fill it with lines  */
 772:.\Generated_Source\PSoC4/StripLights.c **** 		while(xDiff >= 0)
 773:.\Generated_Source\PSoC4/StripLights.c **** 		{
 774:.\Generated_Source\PSoC4/StripLights.c **** 			StripLights_DrawLine(x0, y0, x0, y1, color);
 1032              		.loc 1 774 0
 1033 0020 0097     		str	r7, [sp]
 1034 0022 201C     		mov	r0, r4
 1035 0024 0299     		ldr	r1, [sp, #8]
 1036 0026 221C     		mov	r2, r4
 1037 0028 039B     		ldr	r3, [sp, #12]
 1038 002a FFF7FEFF 		bl	StripLights_DrawLine
 1039              	.LVL113:
 775:.\Generated_Source\PSoC4/StripLights.c **** 		
 776:.\Generated_Source\PSoC4/StripLights.c **** 			if(x0 > x1)
 1040              		.loc 1 776 0
 1041 002e B442     		cmp	r4, r6
 1042 0030 01DD     		ble	.L67
 777:.\Generated_Source\PSoC4/StripLights.c **** 				x0--;
 1043              		.loc 1 777 0
 1044 0032 013C     		sub	r4, r4, #1
 1045              	.LVL114:
 1046 0034 00E0     		b	.L68
 1047              	.L67:
 778:.\Generated_Source\PSoC4/StripLights.c **** 			else
 779:.\Generated_Source\PSoC4/StripLights.c **** 				x0++;
 1048              		.loc 1 779 0
 1049 0036 0134     		add	r4, r4, #1
 1050              	.LVL115:
 1051              	.L68:
 780:.\Generated_Source\PSoC4/StripLights.c **** 		
 781:.\Generated_Source\PSoC4/StripLights.c **** 			xDiff--;
 1052              		.loc 1 781 0
 1053 0038 013D     		sub	r5, r5, #1
 1054              	.LVL116:
 1055              	.L65:
 772:.\Generated_Source\PSoC4/StripLights.c **** 		{
 1056              		.loc 1 772 0
 1057 003a 002D     		cmp	r5, #0
 1058 003c F0DA     		bge	.L69
ARM GAS  C:\Users\JONSHA~1\AppData\Local\Temp\cc9CE70d.s 			page 34


 1059 003e 1AE0     		b	.L62
 1060              	.LVL117:
 1061              	.L63:
 782:.\Generated_Source\PSoC4/StripLights.c **** 		}
 783:.\Generated_Source\PSoC4/StripLights.c **** 
 784:.\Generated_Source\PSoC4/StripLights.c **** 	}
 785:.\Generated_Source\PSoC4/StripLights.c **** 	else 
 786:.\Generated_Source\PSoC4/StripLights.c **** 	{
 787:.\Generated_Source\PSoC4/StripLights.c **** 		/* Draw the four sides of the rectangle */
 788:.\Generated_Source\PSoC4/StripLights.c **** 		StripLights_DrawLine(x0, y0, x1, y0, color);
 1062              		.loc 1 788 0
 1063 0040 0097     		str	r7, [sp]
 1064 0042 029B     		ldr	r3, [sp, #8]
 1065 0044 191C     		mov	r1, r3
 1066              	.LVL118:
 1067 0046 FFF7FEFF 		bl	StripLights_DrawLine
 1068              	.LVL119:
 789:.\Generated_Source\PSoC4/StripLights.c **** 		StripLights_DrawLine(x0, y1, x1, y1, color);
 1069              		.loc 1 789 0
 1070 004a 0097     		str	r7, [sp]
 1071 004c 201C     		mov	r0, r4
 1072 004e 039D     		ldr	r5, [sp, #12]
 1073 0050 291C     		mov	r1, r5
 1074 0052 321C     		mov	r2, r6
 1075 0054 2B1C     		mov	r3, r5
 1076 0056 FFF7FEFF 		bl	StripLights_DrawLine
 1077              	.LVL120:
 790:.\Generated_Source\PSoC4/StripLights.c **** 		StripLights_DrawLine(x0, y0, x0, y1, color);
 1078              		.loc 1 790 0
 1079 005a 0097     		str	r7, [sp]
 1080 005c 201C     		mov	r0, r4
 1081 005e 0299     		ldr	r1, [sp, #8]
 1082 0060 221C     		mov	r2, r4
 1083 0062 2B1C     		mov	r3, r5
 1084 0064 FFF7FEFF 		bl	StripLights_DrawLine
 1085              	.LVL121:
 791:.\Generated_Source\PSoC4/StripLights.c **** 		StripLights_DrawLine(x1, y0, x1, y1, color);
 1086              		.loc 1 791 0
 1087 0068 0097     		str	r7, [sp]
 1088 006a 301C     		mov	r0, r6
 1089 006c 0299     		ldr	r1, [sp, #8]
 1090 006e 321C     		mov	r2, r6
 1091 0070 2B1C     		mov	r3, r5
 1092 0072 FFF7FEFF 		bl	StripLights_DrawLine
 1093              	.LVL122:
 1094              	.L62:
 792:.\Generated_Source\PSoC4/StripLights.c **** 	}
 793:.\Generated_Source\PSoC4/StripLights.c **** }
 1095              		.loc 1 793 0
 1096 0076 05B0     		add	sp, sp, #20
 1097              		@ sp needed
 1098              	.LVL123:
 1099              	.LVL124:
 1100 0078 F0BD     		pop	{r4, r5, r6, r7, pc}
 1101              		.cfi_endproc
 1102              	.LFE48:
 1103              		.size	StripLights_DrawRect, .-StripLights_DrawRect
ARM GAS  C:\Users\JONSHA~1\AppData\Local\Temp\cc9CE70d.s 			page 35


 1104 007a C046     		.section	.text.StripLights_Dim,"ax",%progbits
 1105              		.align	2
 1106              		.global	StripLights_Dim
 1107              		.code	16
 1108              		.thumb_func
 1109              		.type	StripLights_Dim, %function
 1110              	StripLights_Dim:
 1111              	.LFB49:
 794:.\Generated_Source\PSoC4/StripLights.c **** 
 795:.\Generated_Source\PSoC4/StripLights.c **** /*******************************************************************************
 796:.\Generated_Source\PSoC4/StripLights.c **** * Function Name: StripLights_Dim
 797:.\Generated_Source\PSoC4/StripLights.c **** ********************************************************************************
 798:.\Generated_Source\PSoC4/StripLights.c **** *
 799:.\Generated_Source\PSoC4/StripLights.c **** * Summary:
 800:.\Generated_Source\PSoC4/StripLights.c **** *  Dim all output by a specific level (0,1,2,3,4)  
 801:.\Generated_Source\PSoC4/StripLights.c **** *
 802:.\Generated_Source\PSoC4/StripLights.c **** * Parameters:  
 803:.\Generated_Source\PSoC4/StripLights.c **** *  dimLevel:  Dim level 1 to 4, 0 => No dimming.
 804:.\Generated_Source\PSoC4/StripLights.c **** *
 805:.\Generated_Source\PSoC4/StripLights.c **** * Return: 
 806:.\Generated_Source\PSoC4/StripLights.c **** *  None 
 807:.\Generated_Source\PSoC4/StripLights.c **** *  
 808:.\Generated_Source\PSoC4/StripLights.c **** *******************************************************************************/
 809:.\Generated_Source\PSoC4/StripLights.c **** void StripLights_Dim(uint32 dimLevel) 
 810:.\Generated_Source\PSoC4/StripLights.c **** {
 1112              		.loc 1 810 0
 1113              		.cfi_startproc
 1114              	.LVL125:
 811:.\Generated_Source\PSoC4/StripLights.c **** extern uint32  StripLights_DimMask;
 812:.\Generated_Source\PSoC4/StripLights.c **** extern uint32  StripLights_DimShift;
 813:.\Generated_Source\PSoC4/StripLights.c **** 
 814:.\Generated_Source\PSoC4/StripLights.c ****     switch(dimLevel)
 1115              		.loc 1 814 0
 1116 0000 0228     		cmp	r0, #2
 1117 0002 0FD0     		beq	.L73
 1118 0004 02D8     		bhi	.L74
 1119 0006 0128     		cmp	r0, #1
 1120 0008 05D0     		beq	.L75
 1121 000a 20E0     		b	.L72
 1122              	.L74:
 1123 000c 0328     		cmp	r0, #3
 1124 000e 10D0     		beq	.L76
 1125 0010 0428     		cmp	r0, #4
 1126 0012 15D0     		beq	.L77
 1127 0014 1BE0     		b	.L72
 1128              	.L75:
 815:.\Generated_Source\PSoC4/StripLights.c ****     {
 816:.\Generated_Source\PSoC4/StripLights.c ****        case 1:  // 1/2 bright
 817:.\Generated_Source\PSoC4/StripLights.c ****            StripLights_DimMask = 0x007F7F7F;
 1129              		.loc 1 817 0
 1130 0016 114A     		ldr	r2, .L79
 1131 0018 114B     		ldr	r3, .L79+4
 1132 001a 1A60     		str	r2, [r3]
 818:.\Generated_Source\PSoC4/StripLights.c ****            StripLights_DimShift = 1;
 1133              		.loc 1 818 0
 1134 001c 0122     		mov	r2, #1
 1135 001e 114B     		ldr	r3, .L79+8
ARM GAS  C:\Users\JONSHA~1\AppData\Local\Temp\cc9CE70d.s 			page 36


 1136 0020 1A60     		str	r2, [r3]
 819:.\Generated_Source\PSoC4/StripLights.c ****            break;
 1137              		.loc 1 819 0
 1138 0022 1AE0     		b	.L71
 1139              	.L73:
 820:.\Generated_Source\PSoC4/StripLights.c ****            
 821:.\Generated_Source\PSoC4/StripLights.c ****        case 2:
 822:.\Generated_Source\PSoC4/StripLights.c ****            StripLights_DimMask = 0x003F3F3F;
 1140              		.loc 1 822 0
 1141 0024 104A     		ldr	r2, .L79+12
 1142 0026 0E4B     		ldr	r3, .L79+4
 1143 0028 1A60     		str	r2, [r3]
 823:.\Generated_Source\PSoC4/StripLights.c ****            StripLights_DimShift = 2;
 1144              		.loc 1 823 0
 1145 002a 0222     		mov	r2, #2
 1146 002c 0D4B     		ldr	r3, .L79+8
 1147 002e 1A60     		str	r2, [r3]
 824:.\Generated_Source\PSoC4/StripLights.c ****            break;
 1148              		.loc 1 824 0
 1149 0030 13E0     		b	.L71
 1150              	.L76:
 825:.\Generated_Source\PSoC4/StripLights.c ****            
 826:.\Generated_Source\PSoC4/StripLights.c ****        case 3:
 827:.\Generated_Source\PSoC4/StripLights.c ****            StripLights_DimMask = 0x001F1F1F;
 1151              		.loc 1 827 0
 1152 0032 0E4A     		ldr	r2, .L79+16
 1153 0034 0A4B     		ldr	r3, .L79+4
 1154 0036 1A60     		str	r2, [r3]
 828:.\Generated_Source\PSoC4/StripLights.c ****            StripLights_DimShift = 3;
 1155              		.loc 1 828 0
 1156 0038 0322     		mov	r2, #3
 1157 003a 0A4B     		ldr	r3, .L79+8
 1158 003c 1A60     		str	r2, [r3]
 829:.\Generated_Source\PSoC4/StripLights.c ****            break;
 1159              		.loc 1 829 0
 1160 003e 0CE0     		b	.L71
 1161              	.L77:
 830:.\Generated_Source\PSoC4/StripLights.c ****            
 831:.\Generated_Source\PSoC4/StripLights.c ****        case 4:
 832:.\Generated_Source\PSoC4/StripLights.c ****            StripLights_DimMask = 0x000F0F0F;
 1162              		.loc 1 832 0
 1163 0040 0B4A     		ldr	r2, .L79+20
 1164 0042 074B     		ldr	r3, .L79+4
 1165 0044 1A60     		str	r2, [r3]
 833:.\Generated_Source\PSoC4/StripLights.c ****            StripLights_DimShift = 4;
 1166              		.loc 1 833 0
 1167 0046 0422     		mov	r2, #4
 1168 0048 064B     		ldr	r3, .L79+8
 1169 004a 1A60     		str	r2, [r3]
 834:.\Generated_Source\PSoC4/StripLights.c ****            break;
 1170              		.loc 1 834 0
 1171 004c 05E0     		b	.L71
 1172              	.L72:
 835:.\Generated_Source\PSoC4/StripLights.c ****            
 836:.\Generated_Source\PSoC4/StripLights.c ****        default:
 837:.\Generated_Source\PSoC4/StripLights.c ****            StripLights_DimMask = 0x00FFFFFF;
 1173              		.loc 1 837 0
ARM GAS  C:\Users\JONSHA~1\AppData\Local\Temp\cc9CE70d.s 			page 37


 1174 004e 094A     		ldr	r2, .L79+24
 1175 0050 034B     		ldr	r3, .L79+4
 1176 0052 1A60     		str	r2, [r3]
 838:.\Generated_Source\PSoC4/StripLights.c ****            StripLights_DimShift = 0;
 1177              		.loc 1 838 0
 1178 0054 0022     		mov	r2, #0
 1179 0056 034B     		ldr	r3, .L79+8
 1180 0058 1A60     		str	r2, [r3]
 1181              	.L71:
 839:.\Generated_Source\PSoC4/StripLights.c ****            break;
 840:.\Generated_Source\PSoC4/StripLights.c ****         
 841:.\Generated_Source\PSoC4/StripLights.c ****     }
 842:.\Generated_Source\PSoC4/StripLights.c **** }
 1182              		.loc 1 842 0
 1183              		@ sp needed
 1184 005a 7047     		bx	lr
 1185              	.L80:
 1186              		.align	2
 1187              	.L79:
 1188 005c 7F7F7F00 		.word	8355711
 1189 0060 00000000 		.word	StripLights_DimMask
 1190 0064 00000000 		.word	StripLights_DimShift
 1191 0068 3F3F3F00 		.word	4144959
 1192 006c 1F1F1F00 		.word	2039583
 1193 0070 0F0F0F00 		.word	986895
 1194 0074 FFFFFF00 		.word	16777215
 1195              		.cfi_endproc
 1196              	.LFE49:
 1197              		.size	StripLights_Dim, .-StripLights_Dim
 1198              		.section	.text.StripLights_Start,"ax",%progbits
 1199              		.align	2
 1200              		.global	StripLights_Start
 1201              		.code	16
 1202              		.thumb_func
 1203              		.type	StripLights_Start, %function
 1204              	StripLights_Start:
 1205              	.LFB34:
 206:.\Generated_Source\PSoC4/StripLights.c ****     extern uint8 StripLights_initvar;
 1206              		.loc 1 206 0
 1207              		.cfi_startproc
 1208 0000 10B5     		push	{r4, lr}
 1209              		.cfi_def_cfa_offset 8
 1210              		.cfi_offset 4, -8
 1211              		.cfi_offset 14, -4
 210:.\Generated_Source\PSoC4/StripLights.c ****     
 1212              		.loc 1 210 0
 1213 0002 0322     		mov	r2, #3
 1214 0004 144B     		ldr	r3, .L83
 1215 0006 1A70     		strb	r2, [r3]
 212:.\Generated_Source\PSoC4/StripLights.c ****     StripLights_Compare0 = StripLights_DATA_ZERO;
 1216              		.loc 1 212 0
 1217 0008 1A32     		add	r2, r2, #26
 1218 000a 144B     		ldr	r3, .L83+4
 1219 000c 1A70     		strb	r2, [r3]
 213:.\Generated_Source\PSoC4/StripLights.c ****     StripLights_Compare1 = StripLights_DATA_ONE;
 1220              		.loc 1 213 0
 1221 000e 053A     		sub	r2, r2, #5
ARM GAS  C:\Users\JONSHA~1\AppData\Local\Temp\cc9CE70d.s 			page 38


 1222 0010 134B     		ldr	r3, .L83+8
 1223 0012 1A70     		strb	r2, [r3]
 214:.\Generated_Source\PSoC4/StripLights.c ****     
 1224              		.loc 1 214 0
 1225 0014 0A3A     		sub	r2, r2, #10
 1226 0016 134B     		ldr	r3, .L83+12
 1227 0018 1A70     		strb	r2, [r3]
 216:.\Generated_Source\PSoC4/StripLights.c ****     StripLights_MemClear(StripLights_OFF);
 1228              		.loc 1 216 0
 1229 001a 134C     		ldr	r4, .L83+16
 1230 001c 0123     		mov	r3, #1
 1231 001e 2370     		strb	r3, [r4]
 217:.\Generated_Source\PSoC4/StripLights.c ****     StripLights_CONTROL = StripLights_DISABLE;
 1232              		.loc 1 217 0
 1233 0020 1820     		mov	r0, #24
 1234 0022 FFF7FEFF 		bl	StripLights_MemClear
 1235              	.LVL126:
 218:.\Generated_Source\PSoC4/StripLights.c ****     
 1236              		.loc 1 218 0
 1237 0026 0023     		mov	r3, #0
 1238 0028 2370     		strb	r3, [r4]
 220:.\Generated_Source\PSoC4/StripLights.c ****     
 1239              		.loc 1 220 0
 1240 002a 0020     		mov	r0, #0
 1241 002c FFF7FEFF 		bl	StripLights_SetFont
 1242              	.LVL127:
 223:.\Generated_Source\PSoC4/StripLights.c **** 
 1243              		.loc 1 223 0
 1244 0030 0020     		mov	r0, #0
 1245 0032 FFF7FEFF 		bl	StripLights_Dim
 1246              	.LVL128:
 226:.\Generated_Source\PSoC4/StripLights.c ****     {
 1247              		.loc 1 226 0
 1248 0036 0D4B     		ldr	r3, .L83+20
 1249 0038 1B7D     		ldrb	r3, [r3, #20]
 1250 003a 002B     		cmp	r3, #0
 1251 003c 08D1     		bne	.L82
 229:.\Generated_Source\PSoC4/StripLights.c ****  
 1252              		.loc 1 229 0
 1253 003e 0122     		mov	r2, #1
 1254 0040 0A4B     		ldr	r3, .L83+20
 1255 0042 1A75     		strb	r2, [r3, #20]
 235:.\Generated_Source\PSoC4/StripLights.c **** 		   StripLights_fisr_StartEx(StripLights_FISR);
 1256              		.loc 1 235 0
 1257 0044 0A48     		ldr	r0, .L83+24
 1258 0046 FFF7FEFF 		bl	StripLights_cisr_StartEx
 1259              	.LVL129:
 236:.\Generated_Source\PSoC4/StripLights.c ****        }
 1260              		.loc 1 236 0
 1261 004a 0A48     		ldr	r0, .L83+28
 1262 004c FFF7FEFF 		bl	StripLights_fisr_StartEx
 1263              	.LVL130:
 1264              	.L82:
 244:.\Generated_Source\PSoC4/StripLights.c **** }
 1265              		.loc 1 244 0
 1266 0050 0122     		mov	r2, #1
 1267 0052 094B     		ldr	r3, .L83+32
ARM GAS  C:\Users\JONSHA~1\AppData\Local\Temp\cc9CE70d.s 			page 39


 1268 0054 1A60     		str	r2, [r3]
 245:.\Generated_Source\PSoC4/StripLights.c **** 
 1269              		.loc 1 245 0
 1270              		@ sp needed
 1271 0056 10BD     		pop	{r4, pc}
 1272              	.L84:
 1273              		.align	2
 1274              	.L83:
 1275 0058 91000F40 		.word	1074725009
 1276 005c 41000F40 		.word	1074724929
 1277 0060 21000F40 		.word	1074724897
 1278 0064 31000F40 		.word	1074724913
 1279 0068 71000F40 		.word	1074724977
 1280 006c 00000000 		.word	.LANCHOR0
 1281 0070 00000000 		.word	StripLights_CISR
 1282 0074 00000000 		.word	StripLights_FISR
 1283 0078 00000000 		.word	StripLights_refreshComplete
 1284              		.cfi_endproc
 1285              	.LFE34:
 1286              		.size	StripLights_Start, .-StripLights_Start
 1287              		.section	.text.StripLights_bplot,"ax",%progbits
 1288              		.align	2
 1289              		.global	StripLights_bplot
 1290              		.code	16
 1291              		.thumb_func
 1292              		.type	StripLights_bplot, %function
 1293              	StripLights_bplot:
 1294              	.LFB50:
 843:.\Generated_Source\PSoC4/StripLights.c **** 
 844:.\Generated_Source\PSoC4/StripLights.c **** void StripLights_bplot( int32 x, int32 y, uint8 * bitMap, int32 update)
 845:.\Generated_Source\PSoC4/StripLights.c **** {
 1295              		.loc 1 845 0
 1296              		.cfi_startproc
 1297              	.LVL131:
 1298 0000 F0B5     		push	{r4, r5, r6, r7, lr}
 1299              		.cfi_def_cfa_offset 20
 1300              		.cfi_offset 4, -20
 1301              		.cfi_offset 5, -16
 1302              		.cfi_offset 6, -12
 1303              		.cfi_offset 7, -8
 1304              		.cfi_offset 14, -4
 1305 0002 5F46     		mov	r7, fp
 1306 0004 4646     		mov	r6, r8
 1307 0006 C0B4     		push	{r6, r7}
 1308              		.cfi_def_cfa_offset 28
 1309              		.cfi_offset 8, -28
 1310              		.cfi_offset 11, -24
 1311 0008 83B0     		sub	sp, sp, #12
 1312              		.cfi_def_cfa_offset 40
 1313 000a 0190     		str	r0, [sp, #4]
 1314 000c 0091     		str	r1, [sp]
 1315 000e 171C     		mov	r7, r2
 1316 0010 9B46     		mov	fp, r3
 1317              	.LVL132:
 846:.\Generated_Source\PSoC4/StripLights.c ****     int32 dx, dy;
 847:.\Generated_Source\PSoC4/StripLights.c ****     int32 aindex = 0;
 848:.\Generated_Source\PSoC4/StripLights.c ****     int32 maxX, maxY;
ARM GAS  C:\Users\JONSHA~1\AppData\Local\Temp\cc9CE70d.s 			page 40


 849:.\Generated_Source\PSoC4/StripLights.c **** 
 850:.\Generated_Source\PSoC4/StripLights.c ****     maxX = x + (int32)bitMap[aindex++];
 1318              		.loc 1 850 0
 1319 0012 1378     		ldrb	r3, [r2]
 1320              	.LVL133:
 1321 0014 1E18     		add	r6, r3, r0
 1322              	.LVL134:
 851:.\Generated_Source\PSoC4/StripLights.c ****     maxY = y  + (int32)bitMap[aindex++];
 1323              		.loc 1 851 0
 1324 0016 7B78     		ldrb	r3, [r7, #1]
 1325 0018 8846     		mov	r8, r1
 1326 001a 9844     		add	r8, r8, r3
 1327              	.LVL135:
 1328 001c 0223     		mov	r3, #2
 852:.\Generated_Source\PSoC4/StripLights.c **** 
 853:.\Generated_Source\PSoC4/StripLights.c **** 	for(dy = y; dy < maxY; dy++)
 1329              		.loc 1 853 0
 1330 001e 0EE0     		b	.L86
 1331              	.LVL136:
 1332              	.L87:
 854:.\Generated_Source\PSoC4/StripLights.c ****     {
 855:.\Generated_Source\PSoC4/StripLights.c **** 		for(dx = x; dx < maxX; dx++)
 856:.\Generated_Source\PSoC4/StripLights.c ****         {
 857:.\Generated_Source\PSoC4/StripLights.c ****             StripLights_Pixel(dx, dy, bitMap[aindex++]);
 1333              		.loc 1 857 0 discriminator 3
 1334 0020 5D1C     		add	r5, r3, #1
 1335              	.LVL137:
 1336 0022 FA5C     		ldrb	r2, [r7, r3]
 1337 0024 201C     		mov	r0, r4
 1338 0026 0099     		ldr	r1, [sp]
 1339 0028 FFF7FEFF 		bl	StripLights_Pixel
 1340              	.LVL138:
 855:.\Generated_Source\PSoC4/StripLights.c ****         {
 1341              		.loc 1 855 0 discriminator 3
 1342 002c 0134     		add	r4, r4, #1
 1343              	.LVL139:
 1344              		.loc 1 857 0 discriminator 3
 1345 002e 2B1C     		mov	r3, r5
 1346 0030 00E0     		b	.L88
 1347              	.LVL140:
 1348              	.L90:
 1349 0032 019C     		ldr	r4, [sp, #4]
 1350              	.LVL141:
 1351              	.L88:
 855:.\Generated_Source\PSoC4/StripLights.c ****         {
 1352              		.loc 1 855 0 discriminator 1
 1353 0034 B442     		cmp	r4, r6
 1354 0036 F3DB     		blt	.L87
 853:.\Generated_Source\PSoC4/StripLights.c ****     {
 1355              		.loc 1 853 0 discriminator 2
 1356 0038 009A     		ldr	r2, [sp]
 1357 003a 0132     		add	r2, r2, #1
 1358 003c 0092     		str	r2, [sp]
 1359              	.LVL142:
 1360              	.L86:
 853:.\Generated_Source\PSoC4/StripLights.c ****     {
 1361              		.loc 1 853 0 is_stmt 0 discriminator 1
ARM GAS  C:\Users\JONSHA~1\AppData\Local\Temp\cc9CE70d.s 			page 41


 1362 003e 009A     		ldr	r2, [sp]
 1363 0040 4245     		cmp	r2, r8
 1364 0042 F6DB     		blt	.L90
 858:.\Generated_Source\PSoC4/StripLights.c ****         }
 859:.\Generated_Source\PSoC4/StripLights.c ****     }
 860:.\Generated_Source\PSoC4/StripLights.c **** 	if(update) StripLights_Trigger(1);
 1365              		.loc 1 860 0 is_stmt 1
 1366 0044 5B46     		mov	r3, fp
 1367              	.LVL143:
 1368 0046 002B     		cmp	r3, #0
 1369 0048 02D0     		beq	.L85
 1370              	.LVL144:
 1371              		.loc 1 860 0 is_stmt 0 discriminator 1
 1372 004a 0120     		mov	r0, #1
 1373 004c FFF7FEFF 		bl	StripLights_Trigger
 1374              	.LVL145:
 1375              	.L85:
 861:.\Generated_Source\PSoC4/StripLights.c **** }
 1376              		.loc 1 861 0 is_stmt 1
 1377 0050 03B0     		add	sp, sp, #12
 1378              	.LVL146:
 1379              		@ sp needed
 1380              	.LVL147:
 1381              	.LVL148:
 1382              	.LVL149:
 1383              	.LVL150:
 1384 0052 0CBC     		pop	{r2, r3}
 1385 0054 9046     		mov	r8, r2
 1386 0056 9B46     		mov	fp, r3
 1387 0058 F0BD     		pop	{r4, r5, r6, r7, pc}
 1388              		.cfi_endproc
 1389              	.LFE50:
 1390              		.size	StripLights_bplot, .-StripLights_bplot
 1391              		.global	StripLights_CLUT
 1392              		.comm	StripLights_DimShift,4,4
 1393              		.comm	StripLights_DimMask,4,4
 1394              		.comm	StripLights_refreshComplete,4,4
 1395              		.global	StripLights_row
 1396              		.global	StripLights_ledIndex
 1397              		.comm	StripLights_ledArray,240,4
 1398              		.global	StripLights_initvar
 1399 005a C046     		.section	.rodata
 1400              		.align	2
 1401              		.set	.LANCHOR1,. + 0
 1402              		.type	StripLights_CLUT, %object
 1403              		.size	StripLights_CLUT, 480
 1404              	StripLights_CLUT:
 1405 0000 FFFF0000 		.word	65535
 1406 0004 FFCC0000 		.word	52479
 1407 0008 FF990000 		.word	39423
 1408 000c FF330000 		.word	13311
 1409 0010 FF000000 		.word	255
 1410 0014 B3006600 		.word	6684851
 1411 0018 99009900 		.word	10027161
 1412 001c 6600B300 		.word	11731046
 1413 0020 3300CC00 		.word	13369395
 1414 0024 1919B300 		.word	11737369
ARM GAS  C:\Users\JONSHA~1\AppData\Local\Temp\cc9CE70d.s 			page 42


 1415 0028 00339900 		.word	10040064
 1416 002c 00409900 		.word	10043392
 1417 0030 00669900 		.word	10053120
 1418 0034 00999900 		.word	10066176
 1419 0038 00CC9900 		.word	10079232
 1420 003c 00E66600 		.word	6743552
 1421 0040 00FF0000 		.word	65280
 1422 0044 33FF0000 		.word	65331
 1423 0048 66FF0000 		.word	65382
 1424 004c 80FF0000 		.word	65408
 1425 0050 99FF0000 		.word	65433
 1426 0054 B2FF0000 		.word	65458
 1427 0058 CCFF0000 		.word	65484
 1428 005c E5FF0000 		.word	65509
 1429 0060 00000000 		.word	0
 1430 0064 00005500 		.word	5570560
 1431 0068 0000AA00 		.word	11141120
 1432 006c 0000FF00 		.word	16711680
 1433 0070 55000000 		.word	85
 1434 0074 55005500 		.word	5570645
 1435 0078 5500AA00 		.word	11141205
 1436 007c 5500FF00 		.word	16711765
 1437 0080 AA000000 		.word	170
 1438 0084 AA005500 		.word	5570730
 1439 0088 AA00AA00 		.word	11141290
 1440 008c AA00FF00 		.word	16711850
 1441 0090 FF000000 		.word	255
 1442 0094 FF005500 		.word	5570815
 1443 0098 FF00AA00 		.word	11141375
 1444 009c FF00FF00 		.word	16711935
 1445 00a0 00550000 		.word	21760
 1446 00a4 00555500 		.word	5592320
 1447 00a8 0055AA00 		.word	11162880
 1448 00ac 0055FF00 		.word	16733440
 1449 00b0 55550000 		.word	21845
 1450 00b4 55555500 		.word	5592405
 1451 00b8 5555AA00 		.word	11162965
 1452 00bc 5555FF00 		.word	16733525
 1453 00c0 AA550000 		.word	21930
 1454 00c4 AA555500 		.word	5592490
 1455 00c8 AA55AA00 		.word	11163050
 1456 00cc AA55FF00 		.word	16733610
 1457 00d0 FF550000 		.word	22015
 1458 00d4 FF555500 		.word	5592575
 1459 00d8 FF55AA00 		.word	11163135
 1460 00dc FF55FF00 		.word	16733695
 1461 00e0 00AA0000 		.word	43520
 1462 00e4 00AA5500 		.word	5614080
 1463 00e8 00AAAA00 		.word	11184640
 1464 00ec 00AAFF00 		.word	16755200
 1465 00f0 55AA0000 		.word	43605
 1466 00f4 55AA5500 		.word	5614165
 1467 00f8 55AAAA00 		.word	11184725
 1468 00fc 55AAFF00 		.word	16755285
 1469 0100 AAAA0000 		.word	43690
 1470 0104 AAAA5500 		.word	5614250
 1471 0108 AAAAAA00 		.word	11184810
ARM GAS  C:\Users\JONSHA~1\AppData\Local\Temp\cc9CE70d.s 			page 43


 1472 010c AAAAFF00 		.word	16755370
 1473 0110 FFAA0000 		.word	43775
 1474 0114 FFAA5500 		.word	5614335
 1475 0118 FFAAAA00 		.word	11184895
 1476 011c FFAAFF00 		.word	16755455
 1477 0120 00FF0000 		.word	65280
 1478 0124 00FF5500 		.word	5635840
 1479 0128 00FFAA00 		.word	11206400
 1480 012c 00FFFF00 		.word	16776960
 1481 0130 55FF0000 		.word	65365
 1482 0134 55FF5500 		.word	5635925
 1483 0138 55FFAA00 		.word	11206485
 1484 013c 55FFFF00 		.word	16777045
 1485 0140 AAFF0000 		.word	65450
 1486 0144 AAFF5500 		.word	5636010
 1487 0148 AAFFAA00 		.word	11206570
 1488 014c AAFFFF00 		.word	16777130
 1489 0150 FFFF0000 		.word	65535
 1490 0154 FFFF5500 		.word	5636095
 1491 0158 FFFFAA00 		.word	11206655
 1492 015c FFFFFF00 		.word	16777215
 1493 0160 FF800000 		.word	33023
 1494 0164 FF008000 		.word	8388863
 1495 0168 FF00FF00 		.word	16711935
 1496 016c 8000FF00 		.word	16711808
 1497 0170 0080FF00 		.word	16744448
 1498 0174 00FF8000 		.word	8453888
 1499 0178 FF000000 		.word	255
 1500 017c 20202000 		.word	2105376
 1501 0180 00002000 		.word	2097152
 1502 0184 00000010 		.word	268435456
 1503 0188 00000000 		.word	0
 1504 018c 00000000 		.word	0
 1505 0190 00000000 		.word	0
 1506 0194 00000000 		.word	0
 1507 0198 00000000 		.word	0
 1508 019c 00000000 		.word	0
 1509 01a0 0000FF00 		.word	16711680
 1510 01a4 0010F000 		.word	15732736
 1511 01a8 0020E000 		.word	14688256
 1512 01ac 0030D000 		.word	13643776
 1513 01b0 0040C000 		.word	12599296
 1514 01b4 0050B000 		.word	11554816
 1515 01b8 0060A000 		.word	10510336
 1516 01bc 00709000 		.word	9465856
 1517 01c0 00808000 		.word	8421376
 1518 01c4 00907000 		.word	7376896
 1519 01c8 00A06000 		.word	6332416
 1520 01cc 00B05000 		.word	5287936
 1521 01d0 00C04000 		.word	4243456
 1522 01d4 00D03000 		.word	3198976
 1523 01d8 00E02000 		.word	2154496
 1524 01dc 00FF0000 		.word	65280
 1525              		.bss
 1526              		.align	2
 1527              		.set	.LANCHOR0,. + 0
 1528              		.type	StripLights_ledIndex, %object
ARM GAS  C:\Users\JONSHA~1\AppData\Local\Temp\cc9CE70d.s 			page 44


 1529              		.size	StripLights_ledIndex, 4
 1530              	StripLights_ledIndex:
 1531 0000 00000000 		.space	4
 1532              		.type	StripLights_row, %object
 1533              		.size	StripLights_row, 4
 1534              	StripLights_row:
 1535 0004 00000000 		.space	4
 1536              		.type	color.5507, %object
 1537              		.size	color.5507, 4
 1538              	color.5507:
 1539 0008 00000000 		.space	4
 1540              		.type	color.5515, %object
 1541              		.size	color.5515, 4
 1542              	color.5515:
 1543 000c 00000000 		.space	4
 1544              		.type	colorIndex.5500, %object
 1545              		.size	colorIndex.5500, 4
 1546              	colorIndex.5500:
 1547 0010 00000000 		.space	4
 1548              		.type	StripLights_initvar, %object
 1549              		.size	StripLights_initvar, 1
 1550              	StripLights_initvar:
 1551 0014 00       		.space	1
 1552 0015 000000   		.text
 1553              	.Letext0:
 1554              		.file 2 "Generated_Source\\PSoC4/cytypes.h"
 1555              		.file 3 ".\\Generated_Source\\PSoC4\\StripLights_fonts.h"
 1556              		.file 4 "Generated_Source\\PSoC4/StripLights_cisr.h"
 1557              		.file 5 "Generated_Source\\PSoC4/StripLights_fisr.h"